	.file	"main.c"
	.text
.Ltext0:
	.type	stbi__sse2_available, @function
stbi__sse2_available:
.LFB505:
	.file 1 "/usr/include/stb/stb_image.h"
	.loc 1 733 1
	.cfi_startproc
	pushq	%rbp
	.cfi_def_cfa_offset 16
	.cfi_offset 6, -16
	movq	%rsp, %rbp
	.cfi_def_cfa_register 6
	.loc 1 737 11
	movl	$1, %eax
	.loc 1 738 1
	popq	%rbp
	.cfi_def_cfa 7, 8
	ret
	.cfi_endproc
.LFE505:
	.size	stbi__sse2_available, .-stbi__sse2_available
	.type	stbi__start_mem, @function
stbi__start_mem:
.LFB506:
	.loc 1 791 1
	.cfi_startproc
	pushq	%rbp
	.cfi_def_cfa_offset 16
	.cfi_offset 6, -16
	movq	%rsp, %rbp
	.cfi_def_cfa_register 6
	movq	%rdi, -8(%rbp)
	movq	%rsi, -16(%rbp)
	movl	%edx, -20(%rbp)
	.loc 1 792 15
	movq	-8(%rbp), %rax
	movq	$0, 16(%rax)
	.loc 1 793 27
	movq	-8(%rbp), %rax
	movl	$0, 48(%rax)
	.loc 1 794 29
	movq	-8(%rbp), %rax
	movl	$0, 184(%rax)
	.loc 1 795 43
	movq	-8(%rbp), %rax
	movq	-16(%rbp), %rdx
	movq	%rdx, 208(%rax)
	.loc 1 795 21
	movq	-8(%rbp), %rax
	movq	208(%rax), %rdx
	.loc 1 795 18
	movq	-8(%rbp), %rax
	movq	%rdx, 192(%rax)
	.loc 1 796 71
	movl	-20(%rbp), %eax
	movslq	%eax, %rdx
	movq	-16(%rbp), %rax
	addq	%rax, %rdx
	.loc 1 796 51
	movq	-8(%rbp), %rax
	movq	%rdx, 216(%rax)
	.loc 1 796 25
	movq	-8(%rbp), %rax
	movq	216(%rax), %rdx
	.loc 1 796 22
	movq	-8(%rbp), %rax
	movq	%rdx, 200(%rax)
	.loc 1 797 1
	nop
	popq	%rbp
	.cfi_def_cfa 7, 8
	ret
	.cfi_endproc
.LFE506:
	.size	stbi__start_mem, .-stbi__start_mem
	.type	stbi__start_callbacks, @function
stbi__start_callbacks:
.LFB507:
	.loc 1 801 1
	.cfi_startproc
	pushq	%rbp
	.cfi_def_cfa_offset 16
	.cfi_offset 6, -16
	movq	%rsp, %rbp
	.cfi_def_cfa_register 6
	subq	$32, %rsp
	movq	%rdi, -8(%rbp)
	movq	%rsi, -16(%rbp)
	movq	%rdx, -24(%rbp)
	.loc 1 802 10
	movq	-8(%rbp), %rcx
	movq	-16(%rbp), %rsi
	movq	(%rsi), %rax
	movq	8(%rsi), %rdx
	movq	%rax, 16(%rcx)
	movq	%rdx, 24(%rcx)
	movq	16(%rsi), %rax
	movq	%rax, 32(%rcx)
	.loc 1 803 20
	movq	-8(%rbp), %rax
	movq	-24(%rbp), %rdx
	movq	%rdx, 40(%rax)
	.loc 1 804 14
	movq	-8(%rbp), %rax
	movl	$128, 52(%rax)
	.loc 1 805 27
	movq	-8(%rbp), %rax
	movl	$1, 48(%rax)
	.loc 1 806 29
	movq	-8(%rbp), %rax
	movl	$0, 184(%rax)
	.loc 1 807 45
	movq	-8(%rbp), %rax
	leaq	56(%rax), %rdx
	.loc 1 807 43
	movq	-8(%rbp), %rax
	movq	%rdx, 208(%rax)
	.loc 1 807 21
	movq	-8(%rbp), %rax
	movq	208(%rax), %rdx
	.loc 1 807 18
	movq	-8(%rbp), %rax
	movq	%rdx, 192(%rax)
	.loc 1 808 4
	movq	-8(%rbp), %rax
	movq	%rax, %rdi
	call	stbi__refill_buffer
	.loc 1 809 34
	movq	-8(%rbp), %rax
	movq	200(%rax), %rdx
	.loc 1 809 31
	movq	-8(%rbp), %rax
	movq	%rdx, 216(%rax)
	.loc 1 810 1
	nop
	leave
	.cfi_def_cfa 7, 8
	ret
	.cfi_endproc
.LFE507:
	.size	stbi__start_callbacks, .-stbi__start_callbacks
	.type	stbi__stdio_read, @function
stbi__stdio_read:
.LFB508:
	.loc 1 815 1
	.cfi_startproc
	pushq	%rbp
	.cfi_def_cfa_offset 16
	.cfi_offset 6, -16
	movq	%rsp, %rbp
	.cfi_def_cfa_register 6
	subq	$32, %rsp
	movq	%rdi, -8(%rbp)
	movq	%rsi, -16(%rbp)
	movl	%edx, -20(%rbp)
	.loc 1 816 17
	movl	-20(%rbp), %eax
	movslq	%eax, %rdx
	movq	-8(%rbp), %rcx
	movq	-16(%rbp), %rax
	movl	$1, %esi
	movq	%rax, %rdi
	call	fread@PLT
	.loc 1 817 1
	leave
	.cfi_def_cfa 7, 8
	ret
	.cfi_endproc
.LFE508:
	.size	stbi__stdio_read, .-stbi__stdio_read
	.type	stbi__stdio_skip, @function
stbi__stdio_skip:
.LFB509:
	.loc 1 820 1
	.cfi_startproc
	pushq	%rbp
	.cfi_def_cfa_offset 16
	.cfi_offset 6, -16
	movq	%rsp, %rbp
	.cfi_def_cfa_register 6
	subq	$32, %rsp
	movq	%rdi, -24(%rbp)
	movl	%esi, -28(%rbp)
	.loc 1 822 4
	movl	-28(%rbp), %eax
	movslq	%eax, %rcx
	movq	-24(%rbp), %rax
	movl	$1, %edx
	movq	%rcx, %rsi
	movq	%rax, %rdi
	call	fseek@PLT
	.loc 1 823 9
	movq	-24(%rbp), %rax
	movq	%rax, %rdi
	call	fgetc@PLT
	movl	%eax, -4(%rbp)
	.loc 1 824 7
	cmpl	$-1, -4(%rbp)
	je	.L9
	.loc 1 825 7
	movq	-24(%rbp), %rdx
	movl	-4(%rbp), %eax
	movq	%rdx, %rsi
	movl	%eax, %edi
	call	ungetc@PLT
.L9:
	.loc 1 827 1
	nop
	leave
	.cfi_def_cfa 7, 8
	ret
	.cfi_endproc
.LFE509:
	.size	stbi__stdio_skip, .-stbi__stdio_skip
	.type	stbi__stdio_eof, @function
stbi__stdio_eof:
.LFB510:
	.loc 1 830 1
	.cfi_startproc
	pushq	%rbp
	.cfi_def_cfa_offset 16
	.cfi_offset 6, -16
	movq	%rsp, %rbp
	.cfi_def_cfa_register 6
	subq	$16, %rsp
	movq	%rdi, -8(%rbp)
	.loc 1 831 11
	movq	-8(%rbp), %rax
	movq	%rax, %rdi
	call	feof@PLT
	.loc 1 831 30
	testl	%eax, %eax
	jne	.L11
	.loc 1 831 33 discriminator 2
	movq	-8(%rbp), %rax
	movq	%rax, %rdi
	call	ferror@PLT
	.loc 1 831 30 discriminator 2
	testl	%eax, %eax
	je	.L12
.L11:
	.loc 1 831 30 is_stmt 0 discriminator 3
	movl	$1, %eax
	jmp	.L14
.L12:
	.loc 1 831 30 discriminator 4
	movl	$0, %eax
.L14:
	.loc 1 832 1 is_stmt 1 discriminator 7
	leave
	.cfi_def_cfa 7, 8
	ret
	.cfi_endproc
.LFE510:
	.size	stbi__stdio_eof, .-stbi__stdio_eof
	.section	.data.rel.local,"aw"
	.align 16
	.type	stbi__stdio_callbacks, @object
	.size	stbi__stdio_callbacks, 24
stbi__stdio_callbacks:
	.quad	stbi__stdio_read
	.quad	stbi__stdio_skip
	.quad	stbi__stdio_eof
	.text
	.type	stbi__start_file, @function
stbi__start_file:
.LFB511:
	.loc 1 842 1
	.cfi_startproc
	pushq	%rbp
	.cfi_def_cfa_offset 16
	.cfi_offset 6, -16
	movq	%rsp, %rbp
	.cfi_def_cfa_register 6
	subq	$16, %rsp
	movq	%rdi, -8(%rbp)
	movq	%rsi, -16(%rbp)
	.loc 1 843 4
	movq	-16(%rbp), %rdx
	movq	-8(%rbp), %rax
	leaq	stbi__stdio_callbacks(%rip), %rsi
	movq	%rax, %rdi
	call	stbi__start_callbacks
	.loc 1 844 1
	nop
	leave
	.cfi_def_cfa 7, 8
	ret
	.cfi_endproc
.LFE511:
	.size	stbi__start_file, .-stbi__start_file
	.type	stbi__rewind, @function
stbi__rewind:
.LFB512:
	.loc 1 851 1
	.cfi_startproc
	pushq	%rbp
	.cfi_def_cfa_offset 16
	.cfi_offset 6, -16
	movq	%rsp, %rbp
	.cfi_def_cfa_register 6
	movq	%rdi, -8(%rbp)
	.loc 1 855 21
	movq	-8(%rbp), %rax
	movq	208(%rax), %rdx
	.loc 1 855 18
	movq	-8(%rbp), %rax
	movq	%rdx, 192(%rax)
	.loc 1 856 25
	movq	-8(%rbp), %rax
	movq	216(%rax), %rdx
	.loc 1 856 22
	movq	-8(%rbp), %rax
	movq	%rdx, 200(%rax)
	.loc 1 857 1
	nop
	popq	%rbp
	.cfi_def_cfa 7, 8
	ret
	.cfi_endproc
.LFE512:
	.size	stbi__rewind, .-stbi__rewind
	.section	.tbss,"awT",@nobits
	.align 8
	.type	stbi__g_failure_reason, @object
	.size	stbi__g_failure_reason, 8
stbi__g_failure_reason:
	.zero	8
	.text
	.globl	stbi_failure_reason
	.type	stbi_failure_reason, @function
stbi_failure_reason:
.LFB513:
	.loc 1 936 1
	.cfi_startproc
	pushq	%rbp
	.cfi_def_cfa_offset 16
	.cfi_offset 6, -16
	movq	%rsp, %rbp
	.cfi_def_cfa_register 6
	.loc 1 937 11
	movq	%fs:stbi__g_failure_reason@tpoff, %rax
	.loc 1 938 1
	popq	%rbp
	.cfi_def_cfa 7, 8
	ret
	.cfi_endproc
.LFE513:
	.size	stbi_failure_reason, .-stbi_failure_reason
	.type	stbi__err, @function
stbi__err:
.LFB514:
	.loc 1 942 1
	.cfi_startproc
	pushq	%rbp
	.cfi_def_cfa_offset 16
	.cfi_offset 6, -16
	movq	%rsp, %rbp
	.cfi_def_cfa_register 6
	movq	%rdi, -8(%rbp)
	.loc 1 943 27
	movq	-8(%rbp), %rax
	movq	%rax, %fs:stbi__g_failure_reason@tpoff
	.loc 1 944 11
	movl	$0, %eax
	.loc 1 945 1
	popq	%rbp
	.cfi_def_cfa 7, 8
	ret
	.cfi_endproc
.LFE514:
	.size	stbi__err, .-stbi__err
	.type	stbi__malloc, @function
stbi__malloc:
.LFB515:
	.loc 1 949 1
	.cfi_startproc
	pushq	%rbp
	.cfi_def_cfa_offset 16
	.cfi_offset 6, -16
	movq	%rsp, %rbp
	.cfi_def_cfa_register 6
	subq	$16, %rsp
	movq	%rdi, -8(%rbp)
	.loc 1 950 12
	movq	-8(%rbp), %rax
	movq	%rax, %rdi
	call	malloc@PLT
	.loc 1 951 1
	leave
	.cfi_def_cfa 7, 8
	ret
	.cfi_endproc
.LFE515:
	.size	stbi__malloc, .-stbi__malloc
	.type	stbi__addsizes_valid, @function
stbi__addsizes_valid:
.LFB516:
	.loc 1 966 1
	.cfi_startproc
	pushq	%rbp
	.cfi_def_cfa_offset 16
	.cfi_offset 6, -16
	movq	%rsp, %rbp
	.cfi_def_cfa_register 6
	movl	%edi, -4(%rbp)
	movl	%esi, -8(%rbp)
	.loc 1 967 7
	cmpl	$0, -8(%rbp)
	jns	.L24
	.loc 1 967 22 discriminator 1
	movl	$0, %eax
	jmp	.L25
.L24:
	.loc 1 972 24
	movl	$2147483647, %eax
	subl	-8(%rbp), %eax
	.loc 1 972 13
	cmpl	%eax, -4(%rbp)
	setle	%al
	movzbl	%al, %eax
.L25:
	.loc 1 973 1
	popq	%rbp
	.cfi_def_cfa 7, 8
	ret
	.cfi_endproc
.LFE516:
	.size	stbi__addsizes_valid, .-stbi__addsizes_valid
	.type	stbi__mul2sizes_valid, @function
stbi__mul2sizes_valid:
.LFB517:
	.loc 1 978 1
	.cfi_startproc
	pushq	%rbp
	.cfi_def_cfa_offset 16
	.cfi_offset 6, -16
	movq	%rsp, %rbp
	.cfi_def_cfa_register 6
	movl	%edi, -4(%rbp)
	movl	%esi, -8(%rbp)
	.loc 1 979 7
	cmpl	$0, -4(%rbp)
	js	.L27
	.loc 1 979 14 discriminator 2
	cmpl	$0, -8(%rbp)
	jns	.L28
.L27:
	.loc 1 979 31 discriminator 3
	movl	$0, %eax
	jmp	.L29
.L28:
	.loc 1 980 7
	cmpl	$0, -8(%rbp)
	jne	.L30
	.loc 1 980 23 discriminator 1
	movl	$1, %eax
	jmp	.L29
.L30:
	.loc 1 982 23
	movl	$2147483647, %eax
	cltd
	idivl	-8(%rbp)
	.loc 1 982 13
	cmpl	%eax, -4(%rbp)
	setle	%al
	movzbl	%al, %eax
.L29:
	.loc 1 983 1
	popq	%rbp
	.cfi_def_cfa 7, 8
	ret
	.cfi_endproc
.LFE517:
	.size	stbi__mul2sizes_valid, .-stbi__mul2sizes_valid
	.type	stbi__mad2sizes_valid, @function
stbi__mad2sizes_valid:
.LFB518:
	.loc 1 988 1
	.cfi_startproc
	pushq	%rbp
	.cfi_def_cfa_offset 16
	.cfi_offset 6, -16
	movq	%rsp, %rbp
	.cfi_def_cfa_register 6
	subq	$16, %rsp
	movl	%edi, -4(%rbp)
	movl	%esi, -8(%rbp)
	movl	%edx, -12(%rbp)
	.loc 1 989 11
	movl	-8(%rbp), %edx
	movl	-4(%rbp), %eax
	movl	%edx, %esi
	movl	%eax, %edi
	call	stbi__mul2sizes_valid
	.loc 1 989 39
	testl	%eax, %eax
	je	.L32
	.loc 1 989 42 discriminator 1
	movl	-4(%rbp), %eax
	imull	-8(%rbp), %eax
	movl	-12(%rbp), %edx
	movl	%edx, %esi
	movl	%eax, %edi
	call	stbi__addsizes_valid
	.loc 1 989 39 discriminator 1
	testl	%eax, %eax
	je	.L32
	.loc 1 989 39 is_stmt 0 discriminator 3
	movl	$1, %eax
	jmp	.L34
.L32:
	.loc 1 989 39 discriminator 4
	movl	$0, %eax
.L34:
	.loc 1 990 1 is_stmt 1 discriminator 7
	leave
	.cfi_def_cfa 7, 8
	ret
	.cfi_endproc
.LFE518:
	.size	stbi__mad2sizes_valid, .-stbi__mad2sizes_valid
	.type	stbi__mad3sizes_valid, @function
stbi__mad3sizes_valid:
.LFB519:
	.loc 1 995 1
	.cfi_startproc
	pushq	%rbp
	.cfi_def_cfa_offset 16
	.cfi_offset 6, -16
	movq	%rsp, %rbp
	.cfi_def_cfa_register 6
	subq	$16, %rsp
	movl	%edi, -4(%rbp)
	movl	%esi, -8(%rbp)
	movl	%edx, -12(%rbp)
	movl	%ecx, -16(%rbp)
	.loc 1 996 11
	movl	-8(%rbp), %edx
	movl	-4(%rbp), %eax
	movl	%edx, %esi
	movl	%eax, %edi
	call	stbi__mul2sizes_valid
	.loc 1 996 72
	testl	%eax, %eax
	je	.L36
	.loc 1 996 42 discriminator 1
	movl	-4(%rbp), %eax
	imull	-8(%rbp), %eax
	movl	-12(%rbp), %edx
	movl	%edx, %esi
	movl	%eax, %edi
	call	stbi__mul2sizes_valid
	.loc 1 996 39 discriminator 1
	testl	%eax, %eax
	je	.L36
	.loc 1 997 29 discriminator 3
	movl	-4(%rbp), %eax
	imull	-8(%rbp), %eax
	.loc 1 997 7 discriminator 3
	imull	-12(%rbp), %eax
	movl	-16(%rbp), %edx
	movl	%edx, %esi
	movl	%eax, %edi
	call	stbi__addsizes_valid
	.loc 1 996 72 discriminator 3
	testl	%eax, %eax
	je	.L36
	.loc 1 996 72 is_stmt 0 discriminator 5
	movl	$1, %eax
	jmp	.L38
.L36:
	.loc 1 996 72 discriminator 6
	movl	$0, %eax
.L38:
	.loc 1 998 1 is_stmt 1 discriminator 9
	leave
	.cfi_def_cfa 7, 8
	ret
	.cfi_endproc
.LFE519:
	.size	stbi__mad3sizes_valid, .-stbi__mad3sizes_valid
	.type	stbi__mad4sizes_valid, @function
stbi__mad4sizes_valid:
.LFB520:
	.loc 1 1003 1
	.cfi_startproc
	pushq	%rbp
	.cfi_def_cfa_offset 16
	.cfi_offset 6, -16
	movq	%rsp, %rbp
	.cfi_def_cfa_register 6
	subq	$24, %rsp
	movl	%edi, -4(%rbp)
	movl	%esi, -8(%rbp)
	movl	%edx, -12(%rbp)
	movl	%ecx, -16(%rbp)
	movl	%r8d, -20(%rbp)
	.loc 1 1004 11
	movl	-8(%rbp), %edx
	movl	-4(%rbp), %eax
	movl	%edx, %esi
	movl	%eax, %edi
	call	stbi__mul2sizes_valid
	.loc 1 1005 39
	testl	%eax, %eax
	je	.L40
	.loc 1 1004 42
	movl	-4(%rbp), %eax
	imull	-8(%rbp), %eax
	movl	-12(%rbp), %edx
	movl	%edx, %esi
	movl	%eax, %edi
	call	stbi__mul2sizes_valid
	.loc 1 1004 39
	testl	%eax, %eax
	je	.L40
	.loc 1 1005 30 discriminator 1
	movl	-4(%rbp), %eax
	imull	-8(%rbp), %eax
	.loc 1 1005 7 discriminator 1
	imull	-12(%rbp), %eax
	movl	-16(%rbp), %edx
	movl	%edx, %esi
	movl	%eax, %edi
	call	stbi__mul2sizes_valid
	.loc 1 1004 72 discriminator 1
	testl	%eax, %eax
	je	.L40
	.loc 1 1005 64 discriminator 3
	movl	-4(%rbp), %eax
	imull	-8(%rbp), %eax
	.loc 1 1005 66 discriminator 3
	imull	-12(%rbp), %eax
	.loc 1 1005 42 discriminator 3
	imull	-16(%rbp), %eax
	movl	-20(%rbp), %edx
	movl	%edx, %esi
	movl	%eax, %edi
	call	stbi__addsizes_valid
	.loc 1 1005 39 discriminator 3
	testl	%eax, %eax
	je	.L40
	.loc 1 1005 39 is_stmt 0 discriminator 2
	movl	$1, %eax
	jmp	.L42
.L40:
	.loc 1 1005 39 discriminator 1
	movl	$0, %eax
.L42:
	.loc 1 1006 1 is_stmt 1 discriminator 6
	leave
	.cfi_def_cfa 7, 8
	ret
	.cfi_endproc
.LFE520:
	.size	stbi__mad4sizes_valid, .-stbi__mad4sizes_valid
	.type	stbi__malloc_mad2, @function
stbi__malloc_mad2:
.LFB521:
	.loc 1 1012 1
	.cfi_startproc
	pushq	%rbp
	.cfi_def_cfa_offset 16
	.cfi_offset 6, -16
	movq	%rsp, %rbp
	.cfi_def_cfa_register 6
	subq	$16, %rsp
	movl	%edi, -4(%rbp)
	movl	%esi, -8(%rbp)
	movl	%edx, -12(%rbp)
	.loc 1 1013 9
	movl	-12(%rbp), %edx
	movl	-8(%rbp), %ecx
	movl	-4(%rbp), %eax
	movl	%ecx, %esi
	movl	%eax, %edi
	call	stbi__mad2sizes_valid
	.loc 1 1013 7
	testl	%eax, %eax
	jne	.L44
	.loc 1 1013 50 discriminator 1
	movl	$0, %eax
	jmp	.L45
.L44:
	.loc 1 1014 25
	movl	-4(%rbp), %eax
	imull	-8(%rbp), %eax
	movl	%eax, %edx
	.loc 1 1014 28
	movl	-12(%rbp), %eax
	addl	%edx, %eax
	.loc 1 1014 11
	cltq
	movq	%rax, %rdi
	call	stbi__malloc
.L45:
	.loc 1 1015 1
	leave
	.cfi_def_cfa 7, 8
	ret
	.cfi_endproc
.LFE521:
	.size	stbi__malloc_mad2, .-stbi__malloc_mad2
	.type	stbi__malloc_mad3, @function
stbi__malloc_mad3:
.LFB522:
	.loc 1 1019 1
	.cfi_startproc
	pushq	%rbp
	.cfi_def_cfa_offset 16
	.cfi_offset 6, -16
	movq	%rsp, %rbp
	.cfi_def_cfa_register 6
	subq	$16, %rsp
	movl	%edi, -4(%rbp)
	movl	%esi, -8(%rbp)
	movl	%edx, -12(%rbp)
	movl	%ecx, -16(%rbp)
	.loc 1 1020 9
	movl	-16(%rbp), %ecx
	movl	-12(%rbp), %edx
	movl	-8(%rbp), %esi
	movl	-4(%rbp), %eax
	movl	%eax, %edi
	call	stbi__mad3sizes_valid
	.loc 1 1020 7
	testl	%eax, %eax
	jne	.L47
	.loc 1 1020 53 discriminator 1
	movl	$0, %eax
	jmp	.L48
.L47:
	.loc 1 1021 25
	movl	-4(%rbp), %eax
	imull	-8(%rbp), %eax
	.loc 1 1021 27
	imull	-12(%rbp), %eax
	movl	%eax, %edx
	.loc 1 1021 30
	movl	-16(%rbp), %eax
	addl	%edx, %eax
	.loc 1 1021 11
	cltq
	movq	%rax, %rdi
	call	stbi__malloc
.L48:
	.loc 1 1022 1
	leave
	.cfi_def_cfa 7, 8
	ret
	.cfi_endproc
.LFE522:
	.size	stbi__malloc_mad3, .-stbi__malloc_mad3
	.type	stbi__malloc_mad4, @function
stbi__malloc_mad4:
.LFB523:
	.loc 1 1026 1
	.cfi_startproc
	pushq	%rbp
	.cfi_def_cfa_offset 16
	.cfi_offset 6, -16
	movq	%rsp, %rbp
	.cfi_def_cfa_register 6
	subq	$32, %rsp
	movl	%edi, -4(%rbp)
	movl	%esi, -8(%rbp)
	movl	%edx, -12(%rbp)
	movl	%ecx, -16(%rbp)
	movl	%r8d, -20(%rbp)
	.loc 1 1027 9
	movl	-20(%rbp), %edi
	movl	-16(%rbp), %ecx
	movl	-12(%rbp), %edx
	movl	-8(%rbp), %esi
	movl	-4(%rbp), %eax
	movl	%edi, %r8d
	movl	%eax, %edi
	call	stbi__mad4sizes_valid
	.loc 1 1027 7
	testl	%eax, %eax
	jne	.L50
	.loc 1 1027 56 discriminator 1
	movl	$0, %eax
	jmp	.L51
.L50:
	.loc 1 1028 25
	movl	-4(%rbp), %eax
	imull	-8(%rbp), %eax
	.loc 1 1028 27
	imull	-12(%rbp), %eax
	.loc 1 1028 29
	imull	-16(%rbp), %eax
	movl	%eax, %edx
	.loc 1 1028 32
	movl	-20(%rbp), %eax
	addl	%edx, %eax
	.loc 1 1028 11
	cltq
	movq	%rax, %rdi
	call	stbi__malloc
.L51:
	.loc 1 1029 1
	leave
	.cfi_def_cfa 7, 8
	ret
	.cfi_endproc
.LFE523:
	.size	stbi__malloc_mad4, .-stbi__malloc_mad4
	.globl	stbi_image_free
	.type	stbi_image_free, @function
stbi_image_free:
.LFB524:
	.loc 1 1048 1
	.cfi_startproc
	pushq	%rbp
	.cfi_def_cfa_offset 16
	.cfi_offset 6, -16
	movq	%rsp, %rbp
	.cfi_def_cfa_register 6
	subq	$16, %rsp
	movq	%rdi, -8(%rbp)
	.loc 1 1049 4
	movq	-8(%rbp), %rax
	movq	%rax, %rdi
	call	free@PLT
	.loc 1 1050 1
	nop
	leave
	.cfi_def_cfa 7, 8
	ret
	.cfi_endproc
.LFE524:
	.size	stbi_image_free, .-stbi_image_free
	.local	stbi__vertically_flip_on_load_global
	.comm	stbi__vertically_flip_on_load_global,4,4
	.globl	stbi_set_flip_vertically_on_load
	.type	stbi_set_flip_vertically_on_load, @function
stbi_set_flip_vertically_on_load:
.LFB525:
	.loc 1 1063 1
	.cfi_startproc
	pushq	%rbp
	.cfi_def_cfa_offset 16
	.cfi_offset 6, -16
	movq	%rsp, %rbp
	.cfi_def_cfa_register 6
	movl	%edi, -4(%rbp)
	.loc 1 1064 41
	movl	-4(%rbp), %eax
	movl	%eax, stbi__vertically_flip_on_load_global(%rip)
	.loc 1 1065 1
	nop
	popq	%rbp
	.cfi_def_cfa 7, 8
	ret
	.cfi_endproc
.LFE525:
	.size	stbi_set_flip_vertically_on_load, .-stbi_set_flip_vertically_on_load
	.section	.tbss
	.align 4
	.type	stbi__vertically_flip_on_load_local, @object
	.size	stbi__vertically_flip_on_load_local, 4
stbi__vertically_flip_on_load_local:
	.zero	4
	.align 4
	.type	stbi__vertically_flip_on_load_set, @object
	.size	stbi__vertically_flip_on_load_set, 4
stbi__vertically_flip_on_load_set:
	.zero	4
	.text
	.globl	stbi_set_flip_vertically_on_load_thread
	.type	stbi_set_flip_vertically_on_load_thread, @function
stbi_set_flip_vertically_on_load_thread:
.LFB526:
	.loc 1 1073 1
	.cfi_startproc
	pushq	%rbp
	.cfi_def_cfa_offset 16
	.cfi_offset 6, -16
	movq	%rsp, %rbp
	.cfi_def_cfa_register 6
	movl	%edi, -4(%rbp)
	.loc 1 1074 40
	movl	-4(%rbp), %eax
	movl	%eax, %fs:stbi__vertically_flip_on_load_local@tpoff
	.loc 1 1075 38
	movl	$1, %fs:stbi__vertically_flip_on_load_set@tpoff
	.loc 1 1076 1
	nop
	popq	%rbp
	.cfi_def_cfa 7, 8
	ret
	.cfi_endproc
.LFE526:
	.size	stbi_set_flip_vertically_on_load_thread, .-stbi_set_flip_vertically_on_load_thread
	.section	.rodata
.LC0:
	.string	"unknown image type"
	.text
	.type	stbi__load_main, @function
stbi__load_main:
.LFB527:
	.loc 1 1084 1
	.cfi_startproc
	pushq	%rbp
	.cfi_def_cfa_offset 16
	.cfi_offset 6, -16
	movq	%rsp, %rbp
	.cfi_def_cfa_register 6
	subq	$64, %rsp
	movq	%rdi, -24(%rbp)
	movq	%rsi, -32(%rbp)
	movq	%rdx, -40(%rbp)
	movq	%rcx, -48(%rbp)
	movl	%r8d, -52(%rbp)
	movq	%r9, -64(%rbp)
	.loc 1 1085 4
	movq	-64(%rbp), %rax
	movl	$12, %edx
	movl	$0, %esi
	movq	%rax, %rdi
	call	memset@PLT
	.loc 1 1086 25
	movq	-64(%rbp), %rax
	movl	$8, (%rax)
	.loc 1 1087 22
	movq	-64(%rbp), %rax
	movl	$0, 8(%rax)
	.loc 1 1088 21
	movq	-64(%rbp), %rax
	movl	$0, 4(%rax)
	.loc 1 1091 8
	movq	-24(%rbp), %rax
	movq	%rax, %rdi
	call	stbi__jpeg_test
	.loc 1 1091 7
	testl	%eax, %eax
	je	.L56
	.loc 1 1091 35 discriminator 1
	movq	-64(%rbp), %r8
	movl	-52(%rbp), %edi
	movq	-48(%rbp), %rcx
	movq	-40(%rbp), %rdx
	movq	-32(%rbp), %rsi
	movq	-24(%rbp), %rax
	movq	%r8, %r9
	movl	%edi, %r8d
	movq	%rax, %rdi
	call	stbi__jpeg_load
	jmp	.L57
.L56:
	.loc 1 1094 8
	movq	-24(%rbp), %rax
	movq	%rax, %rdi
	call	stbi__png_test
	.loc 1 1094 7
	testl	%eax, %eax
	je	.L58
	.loc 1 1094 35 discriminator 1
	movq	-64(%rbp), %r8
	movl	-52(%rbp), %edi
	movq	-48(%rbp), %rcx
	movq	-40(%rbp), %rdx
	movq	-32(%rbp), %rsi
	movq	-24(%rbp), %rax
	movq	%r8, %r9
	movl	%edi, %r8d
	movq	%rax, %rdi
	call	stbi__png_load
	jmp	.L57
.L58:
	.loc 1 1097 8
	movq	-24(%rbp), %rax
	movq	%rax, %rdi
	call	stbi__bmp_test
	.loc 1 1097 7
	testl	%eax, %eax
	je	.L59
	.loc 1 1097 35 discriminator 1
	movq	-64(%rbp), %r8
	movl	-52(%rbp), %edi
	movq	-48(%rbp), %rcx
	movq	-40(%rbp), %rdx
	movq	-32(%rbp), %rsi
	movq	-24(%rbp), %rax
	movq	%r8, %r9
	movl	%edi, %r8d
	movq	%rax, %rdi
	call	stbi__bmp_load
	jmp	.L57
.L59:
	.loc 1 1100 8
	movq	-24(%rbp), %rax
	movq	%rax, %rdi
	call	stbi__gif_test
	.loc 1 1100 7
	testl	%eax, %eax
	je	.L60
	.loc 1 1100 35 discriminator 1
	movq	-64(%rbp), %r8
	movl	-52(%rbp), %edi
	movq	-48(%rbp), %rcx
	movq	-40(%rbp), %rdx
	movq	-32(%rbp), %rsi
	movq	-24(%rbp), %rax
	movq	%r8, %r9
	movl	%edi, %r8d
	movq	%rax, %rdi
	call	stbi__gif_load
	jmp	.L57
.L60:
	.loc 1 1103 8
	movq	-24(%rbp), %rax
	movq	%rax, %rdi
	call	stbi__psd_test
	.loc 1 1103 7
	testl	%eax, %eax
	je	.L61
	.loc 1 1103 35 discriminator 1
	movq	-64(%rbp), %r9
	movl	-52(%rbp), %r8d
	movq	-48(%rbp), %rcx
	movq	-40(%rbp), %rdx
	movq	-32(%rbp), %rsi
	movq	-24(%rbp), %rax
	subq	$8, %rsp
	movl	16(%rbp), %edi
	pushq	%rdi
	movq	%rax, %rdi
	call	stbi__psd_load
	addq	$16, %rsp
	jmp	.L57
.L61:
	.loc 1 1108 8
	movq	-24(%rbp), %rax
	movq	%rax, %rdi
	call	stbi__pic_test
	.loc 1 1108 7
	testl	%eax, %eax
	je	.L62
	.loc 1 1108 35 discriminator 1
	movq	-64(%rbp), %r8
	movl	-52(%rbp), %edi
	movq	-48(%rbp), %rcx
	movq	-40(%rbp), %rdx
	movq	-32(%rbp), %rsi
	movq	-24(%rbp), %rax
	movq	%r8, %r9
	movl	%edi, %r8d
	movq	%rax, %rdi
	call	stbi__pic_load
	jmp	.L57
.L62:
	.loc 1 1111 8
	movq	-24(%rbp), %rax
	movq	%rax, %rdi
	call	stbi__pnm_test
	.loc 1 1111 7
	testl	%eax, %eax
	je	.L63
	.loc 1 1111 35 discriminator 1
	movq	-64(%rbp), %r8
	movl	-52(%rbp), %edi
	movq	-48(%rbp), %rcx
	movq	-40(%rbp), %rdx
	movq	-32(%rbp), %rsi
	movq	-24(%rbp), %rax
	movq	%r8, %r9
	movl	%edi, %r8d
	movq	%rax, %rdi
	call	stbi__pnm_load
	jmp	.L57
.L63:
	.loc 1 1115 8
	movq	-24(%rbp), %rax
	movq	%rax, %rdi
	call	stbi__hdr_test
	.loc 1 1115 7
	testl	%eax, %eax
	je	.L64
.LBB751:
	.loc 1 1116 20
	movq	-64(%rbp), %r8
	movl	-52(%rbp), %edi
	movq	-48(%rbp), %rcx
	movq	-40(%rbp), %rdx
	movq	-32(%rbp), %rsi
	movq	-24(%rbp), %rax
	movq	%r8, %r9
	movl	%edi, %r8d
	movq	%rax, %rdi
	call	stbi__hdr_load
	movq	%rax, -8(%rbp)
	.loc 1 1117 14
	cmpl	$0, -52(%rbp)
	jne	.L65
	.loc 1 1117 14 is_stmt 0 discriminator 1
	movq	-48(%rbp), %rax
	movl	(%rax), %eax
	jmp	.L66
.L65:
	.loc 1 1117 14 discriminator 2
	movl	-52(%rbp), %eax
.L66:
	.loc 1 1117 14 discriminator 4
	movq	-40(%rbp), %rdx
	movl	(%rdx), %edx
	movq	-32(%rbp), %rcx
	movl	(%rcx), %esi
	movq	-8(%rbp), %rdi
	movl	%eax, %ecx
	call	stbi__hdr_to_ldr
	jmp	.L57
.L64:
.LBE751:
	.loc 1 1123 8 is_stmt 1
	movq	-24(%rbp), %rax
	movq	%rax, %rdi
	call	stbi__tga_test
	.loc 1 1123 7
	testl	%eax, %eax
	je	.L67
	.loc 1 1124 14
	movq	-64(%rbp), %r8
	movl	-52(%rbp), %edi
	movq	-48(%rbp), %rcx
	movq	-40(%rbp), %rdx
	movq	-32(%rbp), %rsi
	movq	-24(%rbp), %rax
	movq	%r8, %r9
	movl	%edi, %r8d
	movq	%rax, %rdi
	call	stbi__tga_load
	jmp	.L57
.L67:
	.loc 1 1127 11
	leaq	.LC0(%rip), %rdi
	call	stbi__err
	movl	$0, %eax
.L57:
	.loc 1 1128 1
	leave
	.cfi_def_cfa 7, 8
	ret
	.cfi_endproc
.LFE527:
	.size	stbi__load_main, .-stbi__load_main
	.section	.rodata
.LC1:
	.string	"outofmem"
	.text
	.type	stbi__convert_16_to_8, @function
stbi__convert_16_to_8:
.LFB528:
	.loc 1 1131 1
	.cfi_startproc
	pushq	%rbp
	.cfi_def_cfa_offset 16
	.cfi_offset 6, -16
	movq	%rsp, %rbp
	.cfi_def_cfa_register 6
	subq	$48, %rsp
	movq	%rdi, -24(%rbp)
	movl	%esi, -28(%rbp)
	movl	%edx, -32(%rbp)
	movl	%ecx, -36(%rbp)
	.loc 1 1133 20
	movl	-28(%rbp), %eax
	imull	-32(%rbp), %eax
	.loc 1 1133 8
	movl	-36(%rbp), %edx
	imull	%edx, %eax
	movl	%eax, -8(%rbp)
	.loc 1 1136 26
	movl	-8(%rbp), %eax
	cltq
	movq	%rax, %rdi
	call	stbi__malloc
	movq	%rax, -16(%rbp)
	.loc 1 1137 7
	cmpq	$0, -16(%rbp)
	jne	.L69
	.loc 1 1137 32 discriminator 1
	leaq	.LC1(%rip), %rdi
	call	stbi__err
	movl	$0, %eax
	jmp	.L70
.L69:
	.loc 1 1139 11
	movl	$0, -4(%rbp)
	.loc 1 1139 4
	jmp	.L71
.L72:
	.loc 1 1140 35 discriminator 3
	movl	-4(%rbp), %eax
	cltq
	leaq	(%rax,%rax), %rdx
	movq	-24(%rbp), %rax
	addq	%rdx, %rax
	movzwl	(%rax), %eax
	.loc 1 1140 20 discriminator 3
	shrw	$8, %ax
	movl	%eax, %ecx
	.loc 1 1140 14 discriminator 3
	movl	-4(%rbp), %eax
	movslq	%eax, %rdx
	movq	-16(%rbp), %rax
	addq	%rdx, %rax
	.loc 1 1140 20 discriminator 3
	movl	%ecx, %edx
	.loc 1 1140 18 discriminator 3
	movb	%dl, (%rax)
	.loc 1 1139 29 discriminator 3
	addl	$1, -4(%rbp)
.L71:
	.loc 1 1139 4 discriminator 1
	movl	-4(%rbp), %eax
	cmpl	-8(%rbp), %eax
	jl	.L72
	.loc 1 1142 4
	movq	-24(%rbp), %rax
	movq	%rax, %rdi
	call	free@PLT
	.loc 1 1143 11
	movq	-16(%rbp), %rax
.L70:
	.loc 1 1144 1
	leave
	.cfi_def_cfa 7, 8
	ret
	.cfi_endproc
.LFE528:
	.size	stbi__convert_16_to_8, .-stbi__convert_16_to_8
	.type	stbi__convert_8_to_16, @function
stbi__convert_8_to_16:
.LFB529:
	.loc 1 1147 1
	.cfi_startproc
	pushq	%rbp
	.cfi_def_cfa_offset 16
	.cfi_offset 6, -16
	movq	%rsp, %rbp
	.cfi_def_cfa_register 6
	subq	$48, %rsp
	movq	%rdi, -24(%rbp)
	movl	%esi, -28(%rbp)
	movl	%edx, -32(%rbp)
	movl	%ecx, -36(%rbp)
	.loc 1 1149 20
	movl	-28(%rbp), %eax
	imull	-32(%rbp), %eax
	.loc 1 1149 8
	movl	-36(%rbp), %edx
	imull	%edx, %eax
	movl	%eax, -8(%rbp)
	.loc 1 1152 52
	movl	-8(%rbp), %eax
	addl	%eax, %eax
	.loc 1 1152 32
	cltq
	movq	%rax, %rdi
	call	stbi__malloc
	movq	%rax, -16(%rbp)
	.loc 1 1153 7
	cmpq	$0, -16(%rbp)
	jne	.L74
	.loc 1 1153 50 discriminator 1
	leaq	.LC1(%rip), %rdi
	call	stbi__err
	.loc 1 1153 33 discriminator 1
	movl	$0, %eax
	jmp	.L75
.L74:
	.loc 1 1155 11
	movl	$0, -4(%rbp)
	.loc 1 1155 4
	jmp	.L76
.L77:
	.loc 1 1156 41 discriminator 3
	movl	-4(%rbp), %eax
	movslq	%eax, %rdx
	movq	-24(%rbp), %rax
	addq	%rdx, %rax
	movzbl	(%rax), %eax
	movzbl	%al, %eax
	.loc 1 1156 45 discriminator 3
	sall	$8, %eax
	movl	%eax, %ecx
	.loc 1 1156 57 discriminator 3
	movl	-4(%rbp), %eax
	movslq	%eax, %rdx
	movq	-24(%rbp), %rax
	addq	%rdx, %rax
	movzbl	(%rax), %eax
	movzbl	%al, %edx
	.loc 1 1156 15 discriminator 3
	movl	-4(%rbp), %eax
	cltq
	leaq	(%rax,%rax), %rsi
	movq	-16(%rbp), %rax
	addq	%rsi, %rax
	.loc 1 1156 21 discriminator 3
	addl	%ecx, %edx
	.loc 1 1156 19 discriminator 3
	movw	%dx, (%rax)
	.loc 1 1155 29 discriminator 3
	addl	$1, -4(%rbp)
.L76:
	.loc 1 1155 4 discriminator 1
	movl	-4(%rbp), %eax
	cmpl	-8(%rbp), %eax
	jl	.L77
	.loc 1 1158 4
	movq	-24(%rbp), %rax
	movq	%rax, %rdi
	call	free@PLT
	.loc 1 1159 11
	movq	-16(%rbp), %rax
.L75:
	.loc 1 1160 1
	leave
	.cfi_def_cfa 7, 8
	ret
	.cfi_endproc
.LFE529:
	.size	stbi__convert_8_to_16, .-stbi__convert_8_to_16
	.type	stbi__vertical_flip, @function
stbi__vertical_flip:
.LFB530:
	.loc 1 1163 1
	.cfi_startproc
	pushq	%rbp
	.cfi_def_cfa_offset 16
	.cfi_offset 6, -16
	movq	%rsp, %rbp
	.cfi_def_cfa_register 6
	subq	$2144, %rsp
	movq	%rdi, -2120(%rbp)
	movl	%esi, -2124(%rbp)
	movl	%edx, -2128(%rbp)
	movl	%ecx, -2132(%rbp)
	.loc 1 1165 27
	movl	-2124(%rbp), %eax
	movslq	%eax, %rdx
	.loc 1 1165 37
	movl	-2132(%rbp), %eax
	cltq
	.loc 1 1165 11
	imulq	%rdx, %rax
	movq	%rax, -40(%rbp)
	.loc 1 1167 13
	movq	-2120(%rbp), %rax
	movq	%rax, -48(%rbp)
	.loc 1 1169 13
	movl	$0, -4(%rbp)
	.loc 1 1169 4
	jmp	.L79
.L82:
.LBB752:
	.loc 1 1170 34
	movl	-4(%rbp), %eax
	cltq
	imulq	-40(%rbp), %rax
	movq	%rax, %rdx
	.loc 1 1170 16
	movq	-48(%rbp), %rax
	addq	%rdx, %rax
	movq	%rax, -16(%rbp)
	.loc 1 1171 34
	movl	-2128(%rbp), %eax
	subl	-4(%rbp), %eax
	.loc 1 1171 40
	subl	$1, %eax
	cltq
	.loc 1 1171 44
	imulq	-40(%rbp), %rax
	movq	%rax, %rdx
	.loc 1 1171 16
	movq	-48(%rbp), %rax
	addq	%rdx, %rax
	movq	%rax, -24(%rbp)
	.loc 1 1173 14
	movq	-40(%rbp), %rax
	movq	%rax, -32(%rbp)
	.loc 1 1174 13
	jmp	.L80
.L81:
.LBB753:
	.loc 1 1175 17
	movl	$2048, %eax
	cmpq	$2048, -32(%rbp)
	cmovbe	-32(%rbp), %rax
	movq	%rax, -56(%rbp)
	.loc 1 1176 10
	movq	-56(%rbp), %rdx
	movq	-16(%rbp), %rcx
	leaq	-2112(%rbp), %rax
	movq	%rcx, %rsi
	movq	%rax, %rdi
	call	memcpy@PLT
	.loc 1 1177 10
	movq	-56(%rbp), %rdx
	movq	-24(%rbp), %rcx
	movq	-16(%rbp), %rax
	movq	%rcx, %rsi
	movq	%rax, %rdi
	call	memcpy@PLT
	.loc 1 1178 10
	movq	-56(%rbp), %rdx
	leaq	-2112(%rbp), %rcx
	movq	-24(%rbp), %rax
	movq	%rcx, %rsi
	movq	%rax, %rdi
	call	memcpy@PLT
	.loc 1 1179 15
	movq	-56(%rbp), %rax
	addq	%rax, -16(%rbp)
	.loc 1 1180 15
	movq	-56(%rbp), %rax
	addq	%rax, -24(%rbp)
	.loc 1 1181 21
	movq	-56(%rbp), %rax
	subq	%rax, -32(%rbp)
.L80:
.LBE753:
	.loc 1 1174 13
	cmpq	$0, -32(%rbp)
	jne	.L81
.LBE752:
	.loc 1 1169 35 discriminator 2
	addl	$1, -4(%rbp)
.L79:
	.loc 1 1169 26 discriminator 1
	movl	-2128(%rbp), %eax
	sarl	%eax
	.loc 1 1169 4 discriminator 1
	cmpl	%eax, -4(%rbp)
	jl	.L82
	.loc 1 1184 1
	nop
	nop
	leave
	.cfi_def_cfa 7, 8
	ret
	.cfi_endproc
.LFE530:
	.size	stbi__vertical_flip, .-stbi__vertical_flip
	.type	stbi__vertical_flip_slices, @function
stbi__vertical_flip_slices:
.LFB531:
	.loc 1 1188 1
	.cfi_startproc
	pushq	%rbp
	.cfi_def_cfa_offset 16
	.cfi_offset 6, -16
	movq	%rsp, %rbp
	.cfi_def_cfa_register 6
	subq	$64, %rsp
	movq	%rdi, -40(%rbp)
	movl	%esi, -44(%rbp)
	movl	%edx, -48(%rbp)
	movl	%ecx, -52(%rbp)
	movl	%r8d, -56(%rbp)
	.loc 1 1190 23
	movl	-44(%rbp), %eax
	imull	-48(%rbp), %eax
	.loc 1 1190 8
	movl	-56(%rbp), %edx
	imull	%edx, %eax
	movl	%eax, -20(%rbp)
	.loc 1 1192 13
	movq	-40(%rbp), %rax
	movq	%rax, -16(%rbp)
	.loc 1 1193 15
	movl	$0, -4(%rbp)
	.loc 1 1193 4
	jmp	.L84
.L85:
	.loc 1 1194 7 discriminator 3
	movl	-56(%rbp), %ecx
	movl	-48(%rbp), %edx
	movl	-44(%rbp), %esi
	movq	-16(%rbp), %rax
	movq	%rax, %rdi
	call	stbi__vertical_flip
	.loc 1 1195 13 discriminator 3
	movl	-20(%rbp), %eax
	cltq
	addq	%rax, -16(%rbp)
	.loc 1 1193 31 discriminator 3
	addl	$1, -4(%rbp)
.L84:
	.loc 1 1193 4 discriminator 1
	movl	-4(%rbp), %eax
	cmpl	-52(%rbp), %eax
	jl	.L85
	.loc 1 1197 1
	nop
	nop
	leave
	.cfi_def_cfa 7, 8
	ret
	.cfi_endproc
.LFE531:
	.size	stbi__vertical_flip_slices, .-stbi__vertical_flip_slices
	.section	.rodata
.LC2:
	.string	"/usr/include/stb/stb_image.h"
	.align 8
.LC3:
	.string	"ri.bits_per_channel == 8 || ri.bits_per_channel == 16"
	.text
	.type	stbi__load_and_postprocess_8bit, @function
stbi__load_and_postprocess_8bit:
.LFB532:
	.loc 1 1201 1
	.cfi_startproc
	pushq	%rbp
	.cfi_def_cfa_offset 16
	.cfi_offset 6, -16
	movq	%rsp, %rbp
	.cfi_def_cfa_register 6
	subq	$80, %rsp
	movq	%rdi, -40(%rbp)
	movq	%rsi, -48(%rbp)
	movq	%rdx, -56(%rbp)
	movq	%rcx, -64(%rbp)
	movl	%r8d, -68(%rbp)
	.loc 1 1203 19
	leaq	-24(%rbp), %r8
	movl	-68(%rbp), %edi
	movq	-64(%rbp), %rcx
	movq	-56(%rbp), %rdx
	movq	-48(%rbp), %rsi
	movq	-40(%rbp), %rax
	subq	$8, %rsp
	pushq	$8
	movq	%r8, %r9
	movl	%edi, %r8d
	movq	%rax, %rdi
	call	stbi__load_main
	addq	$16, %rsp
	movq	%rax, -8(%rbp)
	.loc 1 1205 7
	cmpq	$0, -8(%rbp)
	jne	.L87
	.loc 1 1206 14
	movl	$0, %eax
	jmp	.L98
.L87:
	.loc 1 1209 4
	movl	-24(%rbp), %eax
	cmpl	$8, %eax
	je	.L89
	.loc 1 1209 4 is_stmt 0 discriminator 1
	movl	-24(%rbp), %eax
	cmpl	$16, %eax
	je	.L89
	.loc 1 1209 4 discriminator 2
	leaq	__PRETTY_FUNCTION__.21(%rip), %rcx
	movl	$1209, %edx
	leaq	.LC2(%rip), %rsi
	leaq	.LC3(%rip), %rdi
	call	__assert_fail@PLT
.L89:
	.loc 1 1211 10 is_stmt 1
	movl	-24(%rbp), %eax
	.loc 1 1211 7
	cmpl	$8, %eax
	je	.L90
	.loc 1 1212 16
	cmpl	$0, -68(%rbp)
	jne	.L91
	.loc 1 1212 16 is_stmt 0 discriminator 1
	movq	-64(%rbp), %rax
	movl	(%rax), %eax
	jmp	.L92
.L91:
	.loc 1 1212 16 discriminator 2
	movl	-68(%rbp), %eax
.L92:
	.loc 1 1212 16 discriminator 4
	movq	-56(%rbp), %rdx
	movl	(%rdx), %edx
	movq	-48(%rbp), %rcx
	movl	(%rcx), %esi
	movq	-8(%rbp), %rdi
	movl	%eax, %ecx
	call	stbi__convert_16_to_8
	movq	%rax, -8(%rbp)
	.loc 1 1213 27 is_stmt 1 discriminator 4
	movl	$8, -24(%rbp)
.L90:
	.loc 1 1218 8
	movl	%fs:stbi__vertically_flip_on_load_set@tpoff, %eax
	testl	%eax, %eax
	je	.L93
	.loc 1 1218 8 is_stmt 0 discriminator 1
	movl	%fs:stbi__vertically_flip_on_load_local@tpoff, %eax
	testl	%eax, %eax
	setne	%al
	jmp	.L94
.L93:
	.loc 1 1218 8 discriminator 2
	movl	stbi__vertically_flip_on_load_global(%rip), %eax
	testl	%eax, %eax
	setne	%al
.L94:
	.loc 1 1218 7 is_stmt 1 discriminator 4
	testb	%al, %al
	je	.L95
.LBB754:
	.loc 1 1219 42
	cmpl	$0, -68(%rbp)
	jne	.L96
	.loc 1 1219 42 is_stmt 0 discriminator 1
	movq	-64(%rbp), %rax
	movl	(%rax), %eax
	jmp	.L97
.L96:
	.loc 1 1219 42 discriminator 2
	movl	-68(%rbp), %eax
.L97:
	.loc 1 1219 11 is_stmt 1 discriminator 4
	movl	%eax, -12(%rbp)
	.loc 1 1220 7 discriminator 4
	movq	-56(%rbp), %rax
	movl	(%rax), %edx
	movq	-48(%rbp), %rax
	movl	(%rax), %esi
	movl	-12(%rbp), %ecx
	movq	-8(%rbp), %rax
	movq	%rax, %rdi
	call	stbi__vertical_flip
.L95:
.LBE754:
	.loc 1 1223 11
	movq	-8(%rbp), %rax
.L98:
	.loc 1 1224 1 discriminator 1
	leave
	.cfi_def_cfa 7, 8
	ret
	.cfi_endproc
.LFE532:
	.size	stbi__load_and_postprocess_8bit, .-stbi__load_and_postprocess_8bit
	.type	stbi__load_and_postprocess_16bit, @function
stbi__load_and_postprocess_16bit:
.LFB533:
	.loc 1 1227 1
	.cfi_startproc
	pushq	%rbp
	.cfi_def_cfa_offset 16
	.cfi_offset 6, -16
	movq	%rsp, %rbp
	.cfi_def_cfa_register 6
	subq	$80, %rsp
	movq	%rdi, -40(%rbp)
	movq	%rsi, -48(%rbp)
	movq	%rdx, -56(%rbp)
	movq	%rcx, -64(%rbp)
	movl	%r8d, -68(%rbp)
	.loc 1 1229 19
	leaq	-24(%rbp), %r8
	movl	-68(%rbp), %edi
	movq	-64(%rbp), %rcx
	movq	-56(%rbp), %rdx
	movq	-48(%rbp), %rsi
	movq	-40(%rbp), %rax
	subq	$8, %rsp
	pushq	$16
	movq	%r8, %r9
	movl	%edi, %r8d
	movq	%rax, %rdi
	call	stbi__load_main
	addq	$16, %rsp
	movq	%rax, -8(%rbp)
	.loc 1 1231 7
	cmpq	$0, -8(%rbp)
	jne	.L100
	.loc 1 1232 14
	movl	$0, %eax
	jmp	.L111
.L100:
	.loc 1 1235 4
	movl	-24(%rbp), %eax
	cmpl	$8, %eax
	je	.L102
	.loc 1 1235 4 is_stmt 0 discriminator 1
	movl	-24(%rbp), %eax
	cmpl	$16, %eax
	je	.L102
	.loc 1 1235 4 discriminator 2
	leaq	__PRETTY_FUNCTION__.20(%rip), %rcx
	movl	$1235, %edx
	leaq	.LC2(%rip), %rsi
	leaq	.LC3(%rip), %rdi
	call	__assert_fail@PLT
.L102:
	.loc 1 1237 10 is_stmt 1
	movl	-24(%rbp), %eax
	.loc 1 1237 7
	cmpl	$16, %eax
	je	.L103
	.loc 1 1238 16
	cmpl	$0, -68(%rbp)
	jne	.L104
	.loc 1 1238 16 is_stmt 0 discriminator 1
	movq	-64(%rbp), %rax
	movl	(%rax), %eax
	jmp	.L105
.L104:
	.loc 1 1238 16 discriminator 2
	movl	-68(%rbp), %eax
.L105:
	.loc 1 1238 16 discriminator 4
	movq	-56(%rbp), %rdx
	movl	(%rdx), %edx
	movq	-48(%rbp), %rcx
	movl	(%rcx), %esi
	movq	-8(%rbp), %rdi
	movl	%eax, %ecx
	call	stbi__convert_8_to_16
	movq	%rax, -8(%rbp)
	.loc 1 1239 27 is_stmt 1 discriminator 4
	movl	$16, -24(%rbp)
.L103:
	.loc 1 1245 8
	movl	%fs:stbi__vertically_flip_on_load_set@tpoff, %eax
	testl	%eax, %eax
	je	.L106
	.loc 1 1245 8 is_stmt 0 discriminator 1
	movl	%fs:stbi__vertically_flip_on_load_local@tpoff, %eax
	testl	%eax, %eax
	setne	%al
	jmp	.L107
.L106:
	.loc 1 1245 8 discriminator 2
	movl	stbi__vertically_flip_on_load_global(%rip), %eax
	testl	%eax, %eax
	setne	%al
.L107:
	.loc 1 1245 7 is_stmt 1 discriminator 4
	testb	%al, %al
	je	.L108
.LBB755:
	.loc 1 1246 42
	cmpl	$0, -68(%rbp)
	jne	.L109
	.loc 1 1246 42 is_stmt 0 discriminator 1
	movq	-64(%rbp), %rax
	movl	(%rax), %eax
	jmp	.L110
.L109:
	.loc 1 1246 42 discriminator 2
	movl	-68(%rbp), %eax
.L110:
	.loc 1 1246 11 is_stmt 1 discriminator 4
	movl	%eax, -12(%rbp)
	.loc 1 1247 7 discriminator 4
	movl	-12(%rbp), %eax
	cltq
	addl	%eax, %eax
	movl	%eax, %ecx
	movq	-56(%rbp), %rax
	movl	(%rax), %edx
	movq	-48(%rbp), %rax
	movl	(%rax), %esi
	movq	-8(%rbp), %rax
	movq	%rax, %rdi
	call	stbi__vertical_flip
.L108:
.LBE755:
	.loc 1 1250 11
	movq	-8(%rbp), %rax
.L111:
	.loc 1 1251 1 discriminator 1
	leave
	.cfi_def_cfa 7, 8
	ret
	.cfi_endproc
.LFE533:
	.size	stbi__load_and_postprocess_16bit, .-stbi__load_and_postprocess_16bit
	.type	stbi__float_postprocess, @function
stbi__float_postprocess:
.LFB534:
	.loc 1 1255 1
	.cfi_startproc
	pushq	%rbp
	.cfi_def_cfa_offset 16
	.cfi_offset 6, -16
	movq	%rsp, %rbp
	.cfi_def_cfa_register 6
	subq	$64, %rsp
	movq	%rdi, -24(%rbp)
	movq	%rsi, -32(%rbp)
	movq	%rdx, -40(%rbp)
	movq	%rcx, -48(%rbp)
	movl	%r8d, -52(%rbp)
	.loc 1 1256 8
	movl	%fs:stbi__vertically_flip_on_load_set@tpoff, %eax
	.loc 1 1256 38
	testl	%eax, %eax
	je	.L113
	.loc 1 1256 38 is_stmt 0 discriminator 1
	movl	%fs:stbi__vertically_flip_on_load_local@tpoff, %eax
	testl	%eax, %eax
	setne	%al
	jmp	.L114
.L113:
	.loc 1 1256 38 discriminator 2
	movl	stbi__vertically_flip_on_load_global(%rip), %eax
	testl	%eax, %eax
	setne	%al
.L114:
	.loc 1 1256 7 is_stmt 1 discriminator 4
	testb	%al, %al
	je	.L118
	.loc 1 1256 38 discriminator 5
	cmpq	$0, -24(%rbp)
	je	.L118
.LBB756:
	.loc 1 1257 42
	cmpl	$0, -52(%rbp)
	jne	.L116
	.loc 1 1257 42 is_stmt 0 discriminator 1
	movq	-48(%rbp), %rax
	movl	(%rax), %eax
	jmp	.L117
.L116:
	.loc 1 1257 42 discriminator 2
	movl	-52(%rbp), %eax
.L117:
	.loc 1 1257 11 is_stmt 1 discriminator 4
	movl	%eax, -4(%rbp)
	.loc 1 1258 7 discriminator 4
	movl	-4(%rbp), %eax
	cltq
	sall	$2, %eax
	movl	%eax, %ecx
	movq	-40(%rbp), %rax
	movl	(%rax), %edx
	movq	-32(%rbp), %rax
	movl	(%rax), %esi
	movq	-24(%rbp), %rax
	movq	%rax, %rdi
	call	stbi__vertical_flip
.L118:
.LBE756:
	.loc 1 1260 1
	nop
	leave
	.cfi_def_cfa 7, 8
	ret
	.cfi_endproc
.LFE534:
	.size	stbi__float_postprocess, .-stbi__float_postprocess
	.type	stbi__fopen, @function
stbi__fopen:
.LFB535:
	.loc 1 1278 1
	.cfi_startproc
	pushq	%rbp
	.cfi_def_cfa_offset 16
	.cfi_offset 6, -16
	movq	%rsp, %rbp
	.cfi_def_cfa_register 6
	subq	$32, %rsp
	movq	%rdi, -24(%rbp)
	movq	%rsi, -32(%rbp)
	.loc 1 1300 8
	movq	-32(%rbp), %rdx
	movq	-24(%rbp), %rax
	movq	%rdx, %rsi
	movq	%rax, %rdi
	call	fopen@PLT
	movq	%rax, -8(%rbp)
	.loc 1 1302 11
	movq	-8(%rbp), %rax
	.loc 1 1303 1
	leave
	.cfi_def_cfa 7, 8
	ret
	.cfi_endproc
.LFE535:
	.size	stbi__fopen, .-stbi__fopen
	.section	.rodata
.LC4:
	.string	"rb"
.LC5:
	.string	"can't fopen"
	.text
	.globl	stbi_load
	.type	stbi_load, @function
stbi_load:
.LFB536:
	.loc 1 1307 1
	.cfi_startproc
	pushq	%rbp
	.cfi_def_cfa_offset 16
	.cfi_offset 6, -16
	movq	%rsp, %rbp
	.cfi_def_cfa_register 6
	subq	$64, %rsp
	movq	%rdi, -24(%rbp)
	movq	%rsi, -32(%rbp)
	movq	%rdx, -40(%rbp)
	movq	%rcx, -48(%rbp)
	movl	%r8d, -52(%rbp)
	.loc 1 1308 14
	movq	-24(%rbp), %rax
	leaq	.LC4(%rip), %rsi
	movq	%rax, %rdi
	call	stbi__fopen
	movq	%rax, -8(%rbp)
	.loc 1 1310 7
	cmpq	$0, -8(%rbp)
	jne	.L122
	.loc 1 1310 19 discriminator 1
	leaq	.LC5(%rip), %rdi
	call	stbi__err
	movl	$0, %eax
	jmp	.L123
.L122:
	.loc 1 1311 13
	movl	-52(%rbp), %edi
	movq	-48(%rbp), %rcx
	movq	-40(%rbp), %rdx
	movq	-32(%rbp), %rsi
	movq	-8(%rbp), %rax
	movl	%edi, %r8d
	movq	%rax, %rdi
	call	stbi_load_from_file
	movq	%rax, -16(%rbp)
	.loc 1 1312 4
	movq	-8(%rbp), %rax
	movq	%rax, %rdi
	call	fclose@PLT
	.loc 1 1313 11
	movq	-16(%rbp), %rax
.L123:
	.loc 1 1314 1
	leave
	.cfi_def_cfa 7, 8
	ret
	.cfi_endproc
.LFE536:
	.size	stbi_load, .-stbi_load
	.globl	stbi_load_from_file
	.type	stbi_load_from_file, @function
stbi_load_from_file:
.LFB537:
	.loc 1 1317 1
	.cfi_startproc
	pushq	%rbp
	.cfi_def_cfa_offset 16
	.cfi_offset 6, -16
	movq	%rsp, %rbp
	.cfi_def_cfa_register 6
	subq	$288, %rsp
	movq	%rdi, -248(%rbp)
	movq	%rsi, -256(%rbp)
	movq	%rdx, -264(%rbp)
	movq	%rcx, -272(%rbp)
	movl	%r8d, -276(%rbp)
	.loc 1 1320 4
	movq	-248(%rbp), %rdx
	leaq	-240(%rbp), %rax
	movq	%rdx, %rsi
	movq	%rax, %rdi
	call	stbi__start_file
	.loc 1 1321 13
	movl	-276(%rbp), %edi
	movq	-272(%rbp), %rcx
	movq	-264(%rbp), %rdx
	movq	-256(%rbp), %rsi
	leaq	-240(%rbp), %rax
	movl	%edi, %r8d
	movq	%rax, %rdi
	call	stbi__load_and_postprocess_8bit
	movq	%rax, -8(%rbp)
	.loc 1 1322 7
	cmpq	$0, -8(%rbp)
	je	.L125
	.loc 1 1324 26
	movq	-40(%rbp), %rax
	.loc 1 1324 45
	movq	-48(%rbp), %rdx
	.loc 1 1324 42
	subq	%rdx, %rax
	.loc 1 1324 16
	negl	%eax
	.loc 1 1324 7
	movslq	%eax, %rcx
	movq	-248(%rbp), %rax
	movl	$1, %edx
	movq	%rcx, %rsi
	movq	%rax, %rdi
	call	fseek@PLT
.L125:
	.loc 1 1326 11
	movq	-8(%rbp), %rax
	.loc 1 1327 1
	leave
	.cfi_def_cfa 7, 8
	ret
	.cfi_endproc
.LFE537:
	.size	stbi_load_from_file, .-stbi_load_from_file
	.globl	stbi_load_from_file_16
	.type	stbi_load_from_file_16, @function
stbi_load_from_file_16:
.LFB538:
	.loc 1 1330 1
	.cfi_startproc
	pushq	%rbp
	.cfi_def_cfa_offset 16
	.cfi_offset 6, -16
	movq	%rsp, %rbp
	.cfi_def_cfa_register 6
	subq	$288, %rsp
	movq	%rdi, -248(%rbp)
	movq	%rsi, -256(%rbp)
	movq	%rdx, -264(%rbp)
	movq	%rcx, -272(%rbp)
	movl	%r8d, -276(%rbp)
	.loc 1 1333 4
	movq	-248(%rbp), %rdx
	leaq	-240(%rbp), %rax
	movq	%rdx, %rsi
	movq	%rax, %rdi
	call	stbi__start_file
	.loc 1 1334 13
	movl	-276(%rbp), %edi
	movq	-272(%rbp), %rcx
	movq	-264(%rbp), %rdx
	movq	-256(%rbp), %rsi
	leaq	-240(%rbp), %rax
	movl	%edi, %r8d
	movq	%rax, %rdi
	call	stbi__load_and_postprocess_16bit
	movq	%rax, -8(%rbp)
	.loc 1 1335 7
	cmpq	$0, -8(%rbp)
	je	.L128
	.loc 1 1337 26
	movq	-40(%rbp), %rax
	.loc 1 1337 45
	movq	-48(%rbp), %rdx
	.loc 1 1337 42
	subq	%rdx, %rax
	.loc 1 1337 16
	negl	%eax
	.loc 1 1337 7
	movslq	%eax, %rcx
	movq	-248(%rbp), %rax
	movl	$1, %edx
	movq	%rcx, %rsi
	movq	%rax, %rdi
	call	fseek@PLT
.L128:
	.loc 1 1339 11
	movq	-8(%rbp), %rax
	.loc 1 1340 1
	leave
	.cfi_def_cfa 7, 8
	ret
	.cfi_endproc
.LFE538:
	.size	stbi_load_from_file_16, .-stbi_load_from_file_16
	.globl	stbi_load_16
	.type	stbi_load_16, @function
stbi_load_16:
.LFB539:
	.loc 1 1343 1
	.cfi_startproc
	pushq	%rbp
	.cfi_def_cfa_offset 16
	.cfi_offset 6, -16
	movq	%rsp, %rbp
	.cfi_def_cfa_register 6
	subq	$64, %rsp
	movq	%rdi, -24(%rbp)
	movq	%rsi, -32(%rbp)
	movq	%rdx, -40(%rbp)
	movq	%rcx, -48(%rbp)
	movl	%r8d, -52(%rbp)
	.loc 1 1344 14
	movq	-24(%rbp), %rax
	leaq	.LC4(%rip), %rsi
	movq	%rax, %rdi
	call	stbi__fopen
	movq	%rax, -8(%rbp)
	.loc 1 1346 7
	cmpq	$0, -8(%rbp)
	jne	.L131
	.loc 1 1346 31 discriminator 1
	leaq	.LC5(%rip), %rdi
	call	stbi__err
	.loc 1 1346 19 discriminator 1
	movl	$0, %eax
	jmp	.L132
.L131:
	.loc 1 1347 13
	movl	-52(%rbp), %edi
	movq	-48(%rbp), %rcx
	movq	-40(%rbp), %rdx
	movq	-32(%rbp), %rsi
	movq	-8(%rbp), %rax
	movl	%edi, %r8d
	movq	%rax, %rdi
	call	stbi_load_from_file_16
	movq	%rax, -16(%rbp)
	.loc 1 1348 4
	movq	-8(%rbp), %rax
	movq	%rax, %rdi
	call	fclose@PLT
	.loc 1 1349 11
	movq	-16(%rbp), %rax
.L132:
	.loc 1 1350 1
	leave
	.cfi_def_cfa 7, 8
	ret
	.cfi_endproc
.LFE539:
	.size	stbi_load_16, .-stbi_load_16
	.globl	stbi_load_16_from_memory
	.type	stbi_load_16_from_memory, @function
stbi_load_16_from_memory:
.LFB540:
	.loc 1 1356 1
	.cfi_startproc
	pushq	%rbp
	.cfi_def_cfa_offset 16
	.cfi_offset 6, -16
	movq	%rsp, %rbp
	.cfi_def_cfa_register 6
	subq	$272, %rsp
	movq	%rdi, -232(%rbp)
	movl	%esi, -236(%rbp)
	movq	%rdx, -248(%rbp)
	movq	%rcx, -256(%rbp)
	movq	%r8, -264(%rbp)
	movl	%r9d, -240(%rbp)
	.loc 1 1358 4
	movl	-236(%rbp), %edx
	movq	-232(%rbp), %rcx
	leaq	-224(%rbp), %rax
	movq	%rcx, %rsi
	movq	%rax, %rdi
	call	stbi__start_mem
	.loc 1 1359 11
	movl	-240(%rbp), %edi
	movq	-264(%rbp), %rcx
	movq	-256(%rbp), %rdx
	movq	-248(%rbp), %rsi
	leaq	-224(%rbp), %rax
	movl	%edi, %r8d
	movq	%rax, %rdi
	call	stbi__load_and_postprocess_16bit
	.loc 1 1360 1
	leave
	.cfi_def_cfa 7, 8
	ret
	.cfi_endproc
.LFE540:
	.size	stbi_load_16_from_memory, .-stbi_load_16_from_memory
	.globl	stbi_load_16_from_callbacks
	.type	stbi_load_16_from_callbacks, @function
stbi_load_16_from_callbacks:
.LFB541:
	.loc 1 1363 1
	.cfi_startproc
	pushq	%rbp
	.cfi_def_cfa_offset 16
	.cfi_offset 6, -16
	movq	%rsp, %rbp
	.cfi_def_cfa_register 6
	subq	$272, %rsp
	movq	%rdi, -232(%rbp)
	movq	%rsi, -240(%rbp)
	movq	%rdx, -248(%rbp)
	movq	%rcx, -256(%rbp)
	movq	%r8, -264(%rbp)
	movl	%r9d, -268(%rbp)
	.loc 1 1365 4
	movq	-240(%rbp), %rdx
	movq	-232(%rbp), %rcx
	leaq	-224(%rbp), %rax
	movq	%rcx, %rsi
	movq	%rax, %rdi
	call	stbi__start_callbacks
	.loc 1 1366 11
	movl	-268(%rbp), %edi
	movq	-264(%rbp), %rcx
	movq	-256(%rbp), %rdx
	movq	-248(%rbp), %rsi
	leaq	-224(%rbp), %rax
	movl	%edi, %r8d
	movq	%rax, %rdi
	call	stbi__load_and_postprocess_16bit
	.loc 1 1367 1
	leave
	.cfi_def_cfa 7, 8
	ret
	.cfi_endproc
.LFE541:
	.size	stbi_load_16_from_callbacks, .-stbi_load_16_from_callbacks
	.globl	stbi_load_from_memory
	.type	stbi_load_from_memory, @function
stbi_load_from_memory:
.LFB542:
	.loc 1 1370 1
	.cfi_startproc
	pushq	%rbp
	.cfi_def_cfa_offset 16
	.cfi_offset 6, -16
	movq	%rsp, %rbp
	.cfi_def_cfa_register 6
	subq	$272, %rsp
	movq	%rdi, -232(%rbp)
	movl	%esi, -236(%rbp)
	movq	%rdx, -248(%rbp)
	movq	%rcx, -256(%rbp)
	movq	%r8, -264(%rbp)
	movl	%r9d, -240(%rbp)
	.loc 1 1372 4
	movl	-236(%rbp), %edx
	movq	-232(%rbp), %rcx
	leaq	-224(%rbp), %rax
	movq	%rcx, %rsi
	movq	%rax, %rdi
	call	stbi__start_mem
	.loc 1 1373 11
	movl	-240(%rbp), %edi
	movq	-264(%rbp), %rcx
	movq	-256(%rbp), %rdx
	movq	-248(%rbp), %rsi
	leaq	-224(%rbp), %rax
	movl	%edi, %r8d
	movq	%rax, %rdi
	call	stbi__load_and_postprocess_8bit
	.loc 1 1374 1
	leave
	.cfi_def_cfa 7, 8
	ret
	.cfi_endproc
.LFE542:
	.size	stbi_load_from_memory, .-stbi_load_from_memory
	.globl	stbi_load_from_callbacks
	.type	stbi_load_from_callbacks, @function
stbi_load_from_callbacks:
.LFB543:
	.loc 1 1377 1
	.cfi_startproc
	pushq	%rbp
	.cfi_def_cfa_offset 16
	.cfi_offset 6, -16
	movq	%rsp, %rbp
	.cfi_def_cfa_register 6
	subq	$272, %rsp
	movq	%rdi, -232(%rbp)
	movq	%rsi, -240(%rbp)
	movq	%rdx, -248(%rbp)
	movq	%rcx, -256(%rbp)
	movq	%r8, -264(%rbp)
	movl	%r9d, -268(%rbp)
	.loc 1 1379 4
	movq	-240(%rbp), %rdx
	movq	-232(%rbp), %rcx
	leaq	-224(%rbp), %rax
	movq	%rcx, %rsi
	movq	%rax, %rdi
	call	stbi__start_callbacks
	.loc 1 1380 11
	movl	-268(%rbp), %edi
	movq	-264(%rbp), %rcx
	movq	-256(%rbp), %rdx
	movq	-248(%rbp), %rsi
	leaq	-224(%rbp), %rax
	movl	%edi, %r8d
	movq	%rax, %rdi
	call	stbi__load_and_postprocess_8bit
	.loc 1 1381 1
	leave
	.cfi_def_cfa 7, 8
	ret
	.cfi_endproc
.LFE543:
	.size	stbi_load_from_callbacks, .-stbi_load_from_callbacks
	.globl	stbi_load_gif_from_memory
	.type	stbi_load_gif_from_memory, @function
stbi_load_gif_from_memory:
.LFB544:
	.loc 1 1385 1
	.cfi_startproc
	pushq	%rbp
	.cfi_def_cfa_offset 16
	.cfi_offset 6, -16
	movq	%rsp, %rbp
	.cfi_def_cfa_register 6
	subq	$288, %rsp
	movq	%rdi, -248(%rbp)
	movl	%esi, -252(%rbp)
	movq	%rdx, -264(%rbp)
	movq	%rcx, -272(%rbp)
	movq	%r8, -280(%rbp)
	movq	%r9, -288(%rbp)
	.loc 1 1388 4
	movl	-252(%rbp), %edx
	movq	-248(%rbp), %rcx
	leaq	-240(%rbp), %rax
	movq	%rcx, %rsi
	movq	%rax, %rdi
	call	stbi__start_mem
	.loc 1 1390 30
	movq	-288(%rbp), %r8
	movq	-280(%rbp), %rcx
	movq	-272(%rbp), %rdx
	movq	-264(%rbp), %rsi
	leaq	-240(%rbp), %rax
	subq	$8, %rsp
	movl	24(%rbp), %edi
	pushq	%rdi
	movq	16(%rbp), %r9
	movq	%rax, %rdi
	call	stbi__load_gif_main
	addq	$16, %rsp
	movq	%rax, -8(%rbp)
	.loc 1 1391 8
	movl	%fs:stbi__vertically_flip_on_load_set@tpoff, %eax
	testl	%eax, %eax
	je	.L142
	.loc 1 1391 8 is_stmt 0 discriminator 1
	movl	%fs:stbi__vertically_flip_on_load_local@tpoff, %eax
	testl	%eax, %eax
	setne	%al
	jmp	.L143
.L142:
	.loc 1 1391 8 discriminator 2
	movl	stbi__vertically_flip_on_load_global(%rip), %eax
	testl	%eax, %eax
	setne	%al
.L143:
	.loc 1 1391 7 is_stmt 1 discriminator 4
	testb	%al, %al
	je	.L144
	.loc 1 1392 7
	movq	16(%rbp), %rax
	movl	(%rax), %edi
	movq	-288(%rbp), %rax
	movl	(%rax), %ecx
	movq	-280(%rbp), %rax
	movl	(%rax), %edx
	movq	-272(%rbp), %rax
	movl	(%rax), %esi
	movq	-8(%rbp), %rax
	movl	%edi, %r8d
	movq	%rax, %rdi
	call	stbi__vertical_flip_slices
.L144:
	.loc 1 1395 11
	movq	-8(%rbp), %rax
	.loc 1 1396 1
	leave
	.cfi_def_cfa 7, 8
	ret
	.cfi_endproc
.LFE544:
	.size	stbi_load_gif_from_memory, .-stbi_load_gif_from_memory
	.type	stbi__loadf_main, @function
stbi__loadf_main:
.LFB545:
	.loc 1 1401 1
	.cfi_startproc
	pushq	%rbp
	.cfi_def_cfa_offset 16
	.cfi_offset 6, -16
	movq	%rsp, %rbp
	.cfi_def_cfa_register 6
	subq	$80, %rsp
	movq	%rdi, -40(%rbp)
	movq	%rsi, -48(%rbp)
	movq	%rdx, -56(%rbp)
	movq	%rcx, -64(%rbp)
	movl	%r8d, -68(%rbp)
	.loc 1 1404 8
	movq	-40(%rbp), %rax
	movq	%rax, %rdi
	call	stbi__hdr_test
	.loc 1 1404 7
	testl	%eax, %eax
	je	.L147
.LBB757:
	.loc 1 1406 25
	leaq	-28(%rbp), %r8
	movl	-68(%rbp), %edi
	movq	-64(%rbp), %rcx
	movq	-56(%rbp), %rdx
	movq	-48(%rbp), %rsi
	movq	-40(%rbp), %rax
	movq	%r8, %r9
	movl	%edi, %r8d
	movq	%rax, %rdi
	call	stbi__hdr_load
	movq	%rax, -16(%rbp)
	.loc 1 1407 10
	cmpq	$0, -16(%rbp)
	je	.L148
	.loc 1 1408 10
	movl	-68(%rbp), %edi
	movq	-64(%rbp), %rcx
	movq	-56(%rbp), %rdx
	movq	-48(%rbp), %rsi
	movq	-16(%rbp), %rax
	movl	%edi, %r8d
	movq	%rax, %rdi
	call	stbi__float_postprocess
.L148:
	.loc 1 1409 14
	movq	-16(%rbp), %rax
	jmp	.L149
.L147:
.LBE757:
	.loc 1 1412 11
	movl	-68(%rbp), %edi
	movq	-64(%rbp), %rcx
	movq	-56(%rbp), %rdx
	movq	-48(%rbp), %rsi
	movq	-40(%rbp), %rax
	movl	%edi, %r8d
	movq	%rax, %rdi
	call	stbi__load_and_postprocess_8bit
	movq	%rax, -8(%rbp)
	.loc 1 1413 7
	cmpq	$0, -8(%rbp)
	je	.L150
	.loc 1 1414 14
	cmpl	$0, -68(%rbp)
	jne	.L151
	.loc 1 1414 14 is_stmt 0 discriminator 1
	movq	-64(%rbp), %rax
	movl	(%rax), %eax
	jmp	.L152
.L151:
	.loc 1 1414 14 discriminator 2
	movl	-68(%rbp), %eax
.L152:
	.loc 1 1414 14 discriminator 4
	movq	-56(%rbp), %rdx
	movl	(%rdx), %edx
	movq	-48(%rbp), %rcx
	movl	(%rcx), %esi
	movq	-8(%rbp), %rdi
	movl	%eax, %ecx
	call	stbi__ldr_to_hdr
	jmp	.L149
.L150:
	.loc 1 1415 11 is_stmt 1
	leaq	.LC0(%rip), %rdi
	call	stbi__err
	movl	$0, %eax
.L149:
	.loc 1 1416 1 discriminator 1
	leave
	.cfi_def_cfa 7, 8
	ret
	.cfi_endproc
.LFE545:
	.size	stbi__loadf_main, .-stbi__loadf_main
	.globl	stbi_loadf_from_memory
	.type	stbi_loadf_from_memory, @function
stbi_loadf_from_memory:
.LFB546:
	.loc 1 1419 1
	.cfi_startproc
	pushq	%rbp
	.cfi_def_cfa_offset 16
	.cfi_offset 6, -16
	movq	%rsp, %rbp
	.cfi_def_cfa_register 6
	subq	$272, %rsp
	movq	%rdi, -232(%rbp)
	movl	%esi, -236(%rbp)
	movq	%rdx, -248(%rbp)
	movq	%rcx, -256(%rbp)
	movq	%r8, -264(%rbp)
	movl	%r9d, -240(%rbp)
	.loc 1 1421 4
	movl	-236(%rbp), %edx
	movq	-232(%rbp), %rcx
	leaq	-224(%rbp), %rax
	movq	%rcx, %rsi
	movq	%rax, %rdi
	call	stbi__start_mem
	.loc 1 1422 11
	movl	-240(%rbp), %edi
	movq	-264(%rbp), %rcx
	movq	-256(%rbp), %rdx
	movq	-248(%rbp), %rsi
	leaq	-224(%rbp), %rax
	movl	%edi, %r8d
	movq	%rax, %rdi
	call	stbi__loadf_main
	.loc 1 1423 1
	leave
	.cfi_def_cfa 7, 8
	ret
	.cfi_endproc
.LFE546:
	.size	stbi_loadf_from_memory, .-stbi_loadf_from_memory
	.globl	stbi_loadf_from_callbacks
	.type	stbi_loadf_from_callbacks, @function
stbi_loadf_from_callbacks:
.LFB547:
	.loc 1 1426 1
	.cfi_startproc
	pushq	%rbp
	.cfi_def_cfa_offset 16
	.cfi_offset 6, -16
	movq	%rsp, %rbp
	.cfi_def_cfa_register 6
	subq	$272, %rsp
	movq	%rdi, -232(%rbp)
	movq	%rsi, -240(%rbp)
	movq	%rdx, -248(%rbp)
	movq	%rcx, -256(%rbp)
	movq	%r8, -264(%rbp)
	movl	%r9d, -268(%rbp)
	.loc 1 1428 4
	movq	-240(%rbp), %rdx
	movq	-232(%rbp), %rcx
	leaq	-224(%rbp), %rax
	movq	%rcx, %rsi
	movq	%rax, %rdi
	call	stbi__start_callbacks
	.loc 1 1429 11
	movl	-268(%rbp), %edi
	movq	-264(%rbp), %rcx
	movq	-256(%rbp), %rdx
	movq	-248(%rbp), %rsi
	leaq	-224(%rbp), %rax
	movl	%edi, %r8d
	movq	%rax, %rdi
	call	stbi__loadf_main
	.loc 1 1430 1
	leave
	.cfi_def_cfa 7, 8
	ret
	.cfi_endproc
.LFE547:
	.size	stbi_loadf_from_callbacks, .-stbi_loadf_from_callbacks
	.globl	stbi_loadf
	.type	stbi_loadf, @function
stbi_loadf:
.LFB548:
	.loc 1 1434 1
	.cfi_startproc
	pushq	%rbp
	.cfi_def_cfa_offset 16
	.cfi_offset 6, -16
	movq	%rsp, %rbp
	.cfi_def_cfa_register 6
	subq	$64, %rsp
	movq	%rdi, -24(%rbp)
	movq	%rsi, -32(%rbp)
	movq	%rdx, -40(%rbp)
	movq	%rcx, -48(%rbp)
	movl	%r8d, -52(%rbp)
	.loc 1 1436 14
	movq	-24(%rbp), %rax
	leaq	.LC4(%rip), %rsi
	movq	%rax, %rdi
	call	stbi__fopen
	movq	%rax, -8(%rbp)
	.loc 1 1437 7
	cmpq	$0, -8(%rbp)
	jne	.L158
	.loc 1 1437 19 discriminator 1
	leaq	.LC5(%rip), %rdi
	call	stbi__err
	movl	$0, %eax
	jmp	.L159
.L158:
	.loc 1 1438 13
	movl	-52(%rbp), %edi
	movq	-48(%rbp), %rcx
	movq	-40(%rbp), %rdx
	movq	-32(%rbp), %rsi
	movq	-8(%rbp), %rax
	movl	%edi, %r8d
	movq	%rax, %rdi
	call	stbi_loadf_from_file
	movq	%rax, -16(%rbp)
	.loc 1 1439 4
	movq	-8(%rbp), %rax
	movq	%rax, %rdi
	call	fclose@PLT
	.loc 1 1440 11
	movq	-16(%rbp), %rax
.L159:
	.loc 1 1441 1
	leave
	.cfi_def_cfa 7, 8
	ret
	.cfi_endproc
.LFE548:
	.size	stbi_loadf, .-stbi_loadf
	.globl	stbi_loadf_from_file
	.type	stbi_loadf_from_file, @function
stbi_loadf_from_file:
.LFB549:
	.loc 1 1444 1
	.cfi_startproc
	pushq	%rbp
	.cfi_def_cfa_offset 16
	.cfi_offset 6, -16
	movq	%rsp, %rbp
	.cfi_def_cfa_register 6
	subq	$272, %rsp
	movq	%rdi, -232(%rbp)
	movq	%rsi, -240(%rbp)
	movq	%rdx, -248(%rbp)
	movq	%rcx, -256(%rbp)
	movl	%r8d, -260(%rbp)
	.loc 1 1446 4
	movq	-232(%rbp), %rdx
	leaq	-224(%rbp), %rax
	movq	%rdx, %rsi
	movq	%rax, %rdi
	call	stbi__start_file
	.loc 1 1447 11
	movl	-260(%rbp), %edi
	movq	-256(%rbp), %rcx
	movq	-248(%rbp), %rdx
	movq	-240(%rbp), %rsi
	leaq	-224(%rbp), %rax
	movl	%edi, %r8d
	movq	%rax, %rdi
	call	stbi__loadf_main
	.loc 1 1448 1
	leave
	.cfi_def_cfa 7, 8
	ret
	.cfi_endproc
.LFE549:
	.size	stbi_loadf_from_file, .-stbi_loadf_from_file
	.globl	stbi_is_hdr_from_memory
	.type	stbi_is_hdr_from_memory, @function
stbi_is_hdr_from_memory:
.LFB550:
	.loc 1 1458 1
	.cfi_startproc
	pushq	%rbp
	.cfi_def_cfa_offset 16
	.cfi_offset 6, -16
	movq	%rsp, %rbp
	.cfi_def_cfa_register 6
	subq	$240, %rsp
	movq	%rdi, -232(%rbp)
	movl	%esi, -236(%rbp)
	.loc 1 1461 4
	movl	-236(%rbp), %edx
	movq	-232(%rbp), %rcx
	leaq	-224(%rbp), %rax
	movq	%rcx, %rsi
	movq	%rax, %rdi
	call	stbi__start_mem
	.loc 1 1462 11
	leaq	-224(%rbp), %rax
	movq	%rax, %rdi
	call	stbi__hdr_test
	.loc 1 1468 1
	leave
	.cfi_def_cfa 7, 8
	ret
	.cfi_endproc
.LFE550:
	.size	stbi_is_hdr_from_memory, .-stbi_is_hdr_from_memory
	.globl	stbi_is_hdr
	.type	stbi_is_hdr, @function
stbi_is_hdr:
.LFB551:
	.loc 1 1472 1
	.cfi_startproc
	pushq	%rbp
	.cfi_def_cfa_offset 16
	.cfi_offset 6, -16
	movq	%rsp, %rbp
	.cfi_def_cfa_register 6
	subq	$32, %rsp
	movq	%rdi, -24(%rbp)
	.loc 1 1473 14
	movq	-24(%rbp), %rax
	leaq	.LC4(%rip), %rsi
	movq	%rax, %rdi
	call	stbi__fopen
	movq	%rax, -16(%rbp)
	.loc 1 1474 8
	movl	$0, -4(%rbp)
	.loc 1 1475 7
	cmpq	$0, -16(%rbp)
	je	.L165
	.loc 1 1476 16
	movq	-16(%rbp), %rax
	movq	%rax, %rdi
	call	stbi_is_hdr_from_file
	movl	%eax, -4(%rbp)
	.loc 1 1477 7
	movq	-16(%rbp), %rax
	movq	%rax, %rdi
	call	fclose@PLT
.L165:
	.loc 1 1479 11
	movl	-4(%rbp), %eax
	.loc 1 1480 1
	leave
	.cfi_def_cfa 7, 8
	ret
	.cfi_endproc
.LFE551:
	.size	stbi_is_hdr, .-stbi_is_hdr
	.globl	stbi_is_hdr_from_file
	.type	stbi_is_hdr_from_file, @function
stbi_is_hdr_from_file:
.LFB552:
	.loc 1 1483 1
	.cfi_startproc
	pushq	%rbp
	.cfi_def_cfa_offset 16
	.cfi_offset 6, -16
	movq	%rsp, %rbp
	.cfi_def_cfa_register 6
	subq	$256, %rsp
	movq	%rdi, -248(%rbp)
	.loc 1 1485 15
	movq	-248(%rbp), %rax
	movq	%rax, %rdi
	call	ftell@PLT
	movq	%rax, -8(%rbp)
	.loc 1 1488 4
	movq	-248(%rbp), %rdx
	leaq	-240(%rbp), %rax
	movq	%rdx, %rsi
	movq	%rax, %rdi
	call	stbi__start_file
	.loc 1 1489 10
	leaq	-240(%rbp), %rax
	movq	%rax, %rdi
	call	stbi__hdr_test
	movl	%eax, -12(%rbp)
	.loc 1 1490 4
	movq	-8(%rbp), %rcx
	movq	-248(%rbp), %rax
	movl	$0, %edx
	movq	%rcx, %rsi
	movq	%rax, %rdi
	call	fseek@PLT
	.loc 1 1491 11
	movl	-12(%rbp), %eax
	.loc 1 1496 1
	leave
	.cfi_def_cfa 7, 8
	ret
	.cfi_endproc
.LFE552:
	.size	stbi_is_hdr_from_file, .-stbi_is_hdr_from_file
	.globl	stbi_is_hdr_from_callbacks
	.type	stbi_is_hdr_from_callbacks, @function
stbi_is_hdr_from_callbacks:
.LFB553:
	.loc 1 1500 1
	.cfi_startproc
	pushq	%rbp
	.cfi_def_cfa_offset 16
	.cfi_offset 6, -16
	movq	%rsp, %rbp
	.cfi_def_cfa_register 6
	subq	$240, %rsp
	movq	%rdi, -232(%rbp)
	movq	%rsi, -240(%rbp)
	.loc 1 1503 4
	movq	-240(%rbp), %rdx
	movq	-232(%rbp), %rcx
	leaq	-224(%rbp), %rax
	movq	%rcx, %rsi
	movq	%rax, %rdi
	call	stbi__start_callbacks
	.loc 1 1504 11
	leaq	-224(%rbp), %rax
	movq	%rax, %rdi
	call	stbi__hdr_test
	.loc 1 1510 1
	leave
	.cfi_def_cfa 7, 8
	ret
	.cfi_endproc
.LFE553:
	.size	stbi_is_hdr_from_callbacks, .-stbi_is_hdr_from_callbacks
	.data
	.align 4
	.type	stbi__l2h_gamma, @object
	.size	stbi__l2h_gamma, 4
stbi__l2h_gamma:
	.long	1074580685
	.align 4
	.type	stbi__l2h_scale, @object
	.size	stbi__l2h_scale, 4
stbi__l2h_scale:
	.long	1065353216
	.text
	.globl	stbi_ldr_to_hdr_gamma
	.type	stbi_ldr_to_hdr_gamma, @function
stbi_ldr_to_hdr_gamma:
.LFB554:
	.loc 1 1515 51
	.cfi_startproc
	pushq	%rbp
	.cfi_def_cfa_offset 16
	.cfi_offset 6, -16
	movq	%rsp, %rbp
	.cfi_def_cfa_register 6
	movss	%xmm0, -4(%rbp)
	.loc 1 1515 69
	movss	-4(%rbp), %xmm0
	movss	%xmm0, stbi__l2h_gamma(%rip)
	.loc 1 1515 78
	nop
	popq	%rbp
	.cfi_def_cfa 7, 8
	ret
	.cfi_endproc
.LFE554:
	.size	stbi_ldr_to_hdr_gamma, .-stbi_ldr_to_hdr_gamma
	.globl	stbi_ldr_to_hdr_scale
	.type	stbi_ldr_to_hdr_scale, @function
stbi_ldr_to_hdr_scale:
.LFB555:
	.loc 1 1516 51
	.cfi_startproc
	pushq	%rbp
	.cfi_def_cfa_offset 16
	.cfi_offset 6, -16
	movq	%rsp, %rbp
	.cfi_def_cfa_register 6
	movss	%xmm0, -4(%rbp)
	.loc 1 1516 69
	movss	-4(%rbp), %xmm0
	movss	%xmm0, stbi__l2h_scale(%rip)
	.loc 1 1516 78
	nop
	popq	%rbp
	.cfi_def_cfa 7, 8
	ret
	.cfi_endproc
.LFE555:
	.size	stbi_ldr_to_hdr_scale, .-stbi_ldr_to_hdr_scale
	.data
	.align 4
	.type	stbi__h2l_gamma_i, @object
	.size	stbi__h2l_gamma_i, 4
stbi__h2l_gamma_i:
	.long	1055439406
	.align 4
	.type	stbi__h2l_scale_i, @object
	.size	stbi__h2l_scale_i, 4
stbi__h2l_scale_i:
	.long	1065353216
	.text
	.globl	stbi_hdr_to_ldr_gamma
	.type	stbi_hdr_to_ldr_gamma, @function
stbi_hdr_to_ldr_gamma:
.LFB556:
	.loc 1 1521 51
	.cfi_startproc
	pushq	%rbp
	.cfi_def_cfa_offset 16
	.cfi_offset 6, -16
	movq	%rsp, %rbp
	.cfi_def_cfa_register 6
	movss	%xmm0, -4(%rbp)
	.loc 1 1521 74
	movss	.LC6(%rip), %xmm0
	divss	-4(%rbp), %xmm0
	.loc 1 1521 71
	movss	%xmm0, stbi__h2l_gamma_i(%rip)
	.loc 1 1521 82
	nop
	popq	%rbp
	.cfi_def_cfa 7, 8
	ret
	.cfi_endproc
.LFE556:
	.size	stbi_hdr_to_ldr_gamma, .-stbi_hdr_to_ldr_gamma
	.globl	stbi_hdr_to_ldr_scale
	.type	stbi_hdr_to_ldr_scale, @function
stbi_hdr_to_ldr_scale:
.LFB557:
	.loc 1 1522 51
	.cfi_startproc
	pushq	%rbp
	.cfi_def_cfa_offset 16
	.cfi_offset 6, -16
	movq	%rsp, %rbp
	.cfi_def_cfa_register 6
	movss	%xmm0, -4(%rbp)
	.loc 1 1522 74
	movss	.LC6(%rip), %xmm0
	divss	-4(%rbp), %xmm0
	.loc 1 1522 71
	movss	%xmm0, stbi__h2l_scale_i(%rip)
	.loc 1 1522 82
	nop
	popq	%rbp
	.cfi_def_cfa 7, 8
	ret
	.cfi_endproc
.LFE557:
	.size	stbi_hdr_to_ldr_scale, .-stbi_hdr_to_ldr_scale
	.type	stbi__refill_buffer, @function
stbi__refill_buffer:
.LFB558:
	.loc 1 1538 1
	.cfi_startproc
	pushq	%rbp
	.cfi_def_cfa_offset 16
	.cfi_offset 6, -16
	movq	%rsp, %rbp
	.cfi_def_cfa_register 6
	subq	$32, %rsp
	movq	%rdi, -24(%rbp)
	.loc 1 1539 18
	movq	-24(%rbp), %rax
	movq	16(%rax), %rcx
	movq	-24(%rbp), %rax
	movl	52(%rax), %edx
	.loc 1 1539 48
	movq	-24(%rbp), %rax
	leaq	56(%rax), %rsi
	.loc 1 1539 18
	movq	-24(%rbp), %rax
	movq	40(%rax), %rax
	movq	%rax, %rdi
	call	*%rcx
.LVL0:
	movl	%eax, -4(%rbp)
	.loc 1 1540 29
	movq	-24(%rbp), %rax
	movl	184(%rax), %ecx
	.loc 1 1540 40
	movq	-24(%rbp), %rax
	movq	192(%rax), %rdx
	.loc 1 1540 56
	movq	-24(%rbp), %rax
	movq	208(%rax), %rsi
	.loc 1 1540 53
	movq	%rdx, %rax
	subq	%rsi, %rax
	.loc 1 1540 29
	leal	(%rcx,%rax), %edx
	movq	-24(%rbp), %rax
	movl	%edx, 184(%rax)
	.loc 1 1541 7
	cmpl	$0, -4(%rbp)
	jne	.L176
	.loc 1 1544 30
	movq	-24(%rbp), %rax
	movl	$0, 48(%rax)
	.loc 1 1545 23
	movq	-24(%rbp), %rax
	leaq	56(%rax), %rdx
	.loc 1 1545 21
	movq	-24(%rbp), %rax
	movq	%rdx, 192(%rax)
	.loc 1 1546 27
	movq	-24(%rbp), %rax
	addq	$56, %rax
	.loc 1 1546 42
	leaq	1(%rax), %rdx
	.loc 1 1546 25
	movq	-24(%rbp), %rax
	movq	%rdx, 200(%rax)
	.loc 1 1547 9
	movq	-24(%rbp), %rax
	movq	192(%rax), %rax
	.loc 1 1547 22
	movb	$0, (%rax)
	.loc 1 1552 1
	jmp	.L178
.L176:
	.loc 1 1549 23
	movq	-24(%rbp), %rax
	leaq	56(%rax), %rdx
	.loc 1 1549 21
	movq	-24(%rbp), %rax
	movq	%rdx, 192(%rax)
	.loc 1 1550 27
	movq	-24(%rbp), %rax
	leaq	56(%rax), %rdx
	.loc 1 1550 43
	movl	-4(%rbp), %eax
	cltq
	addq	%rax, %rdx
	.loc 1 1550 25
	movq	-24(%rbp), %rax
	movq	%rdx, 200(%rax)
.L178:
	.loc 1 1552 1
	nop
	leave
	.cfi_def_cfa 7, 8
	ret
	.cfi_endproc
.LFE558:
	.size	stbi__refill_buffer, .-stbi__refill_buffer
	.type	stbi__get8, @function
stbi__get8:
.LFB559:
	.loc 1 1555 1
	.cfi_startproc
	pushq	%rbp
	.cfi_def_cfa_offset 16
	.cfi_offset 6, -16
	movq	%rsp, %rbp
	.cfi_def_cfa_register 6
	subq	$16, %rsp
	movq	%rdi, -8(%rbp)
	.loc 1 1556 9
	movq	-8(%rbp), %rax
	movq	192(%rax), %rdx
	.loc 1 1556 25
	movq	-8(%rbp), %rax
	movq	200(%rax), %rax
	.loc 1 1556 7
	cmpq	%rax, %rdx
	jnb	.L180
	.loc 1 1557 16
	movq	-8(%rbp), %rax
	movq	192(%rax), %rax
	.loc 1 1557 28
	leaq	1(%rax), %rcx
	movq	-8(%rbp), %rdx
	movq	%rcx, 192(%rdx)
	.loc 1 1557 14
	movzbl	(%rax), %eax
	jmp	.L181
.L180:
	.loc 1 1558 9
	movq	-8(%rbp), %rax
	movl	48(%rax), %eax
	.loc 1 1558 7
	testl	%eax, %eax
	je	.L182
	.loc 1 1559 7
	movq	-8(%rbp), %rax
	movq	%rax, %rdi
	call	stbi__refill_buffer
	.loc 1 1560 16
	movq	-8(%rbp), %rax
	movq	192(%rax), %rax
	.loc 1 1560 28
	leaq	1(%rax), %rcx
	movq	-8(%rbp), %rdx
	movq	%rcx, 192(%rdx)
	.loc 1 1560 14
	movzbl	(%rax), %eax
	jmp	.L181
.L182:
	.loc 1 1562 11
	movl	$0, %eax
.L181:
	.loc 1 1563 1
	leave
	.cfi_def_cfa 7, 8
	ret
	.cfi_endproc
.LFE559:
	.size	stbi__get8, .-stbi__get8
	.type	stbi__at_eof, @function
stbi__at_eof:
.LFB560:
	.loc 1 1569 1
	.cfi_startproc
	pushq	%rbp
	.cfi_def_cfa_offset 16
	.cfi_offset 6, -16
	movq	%rsp, %rbp
	.cfi_def_cfa_register 6
	subq	$16, %rsp
	movq	%rdi, -8(%rbp)
	.loc 1 1570 13
	movq	-8(%rbp), %rax
	movq	16(%rax), %rax
	.loc 1 1570 7
	testq	%rax, %rax
	je	.L184
	.loc 1 1571 18
	movq	-8(%rbp), %rax
	movq	32(%rax), %rdx
	movq	-8(%rbp), %rax
	movq	40(%rax), %rax
	movq	%rax, %rdi
	call	*%rdx
.LVL1:
	.loc 1 1571 10
	testl	%eax, %eax
	jne	.L185
	.loc 1 1571 49 discriminator 1
	movl	$0, %eax
	jmp	.L186
.L185:
	.loc 1 1574 12
	movq	-8(%rbp), %rax
	movl	48(%rax), %eax
	.loc 1 1574 10
	testl	%eax, %eax
	jne	.L184
	.loc 1 1574 47 discriminator 1
	movl	$1, %eax
	jmp	.L186
.L184:
	.loc 1 1577 12
	movq	-8(%rbp), %rax
	movq	192(%rax), %rdx
	.loc 1 1577 29
	movq	-8(%rbp), %rax
	movq	200(%rax), %rax
	.loc 1 1577 25
	cmpq	%rax, %rdx
	setnb	%al
	movzbl	%al, %eax
.L186:
	.loc 1 1578 1
	leave
	.cfi_def_cfa 7, 8
	ret
	.cfi_endproc
.LFE560:
	.size	stbi__at_eof, .-stbi__at_eof
	.type	stbi__skip, @function
stbi__skip:
.LFB561:
	.loc 1 1585 1
	.cfi_startproc
	pushq	%rbp
	.cfi_def_cfa_offset 16
	.cfi_offset 6, -16
	movq	%rsp, %rbp
	.cfi_def_cfa_register 6
	subq	$32, %rsp
	movq	%rdi, -24(%rbp)
	movl	%esi, -28(%rbp)
	.loc 1 1586 7
	cmpl	$0, -28(%rbp)
	je	.L192
	.loc 1 1587 7
	cmpl	$0, -28(%rbp)
	jns	.L190
	.loc 1 1588 24
	movq	-24(%rbp), %rax
	movq	200(%rax), %rdx
	.loc 1 1588 21
	movq	-24(%rbp), %rax
	movq	%rdx, 192(%rax)
	.loc 1 1589 7
	jmp	.L187
.L190:
	.loc 1 1591 13
	movq	-24(%rbp), %rax
	movq	16(%rax), %rax
	.loc 1 1591 7
	testq	%rax, %rax
	je	.L191
.LBB758:
	.loc 1 1592 26
	movq	-24(%rbp), %rax
	movq	200(%rax), %rdx
	.loc 1 1592 46
	movq	-24(%rbp), %rax
	movq	192(%rax), %rcx
	.loc 1 1592 43
	movq	%rdx, %rax
	subq	%rcx, %rax
	.loc 1 1592 11
	movl	%eax, -4(%rbp)
	.loc 1 1593 10
	movl	-4(%rbp), %eax
	cmpl	-28(%rbp), %eax
	jge	.L191
	.loc 1 1594 27
	movq	-24(%rbp), %rax
	movq	200(%rax), %rdx
	.loc 1 1594 24
	movq	-24(%rbp), %rax
	movq	%rdx, 192(%rax)
	.loc 1 1595 16
	movq	-24(%rbp), %rax
	movq	24(%rax), %rcx
	movl	-28(%rbp), %eax
	subl	-4(%rbp), %eax
	movl	%eax, %edx
	movq	-24(%rbp), %rax
	movq	40(%rax), %rax
	movl	%edx, %esi
	movq	%rax, %rdi
	call	*%rcx
.LVL2:
	.loc 1 1596 10
	jmp	.L187
.L191:
.LBE758:
	.loc 1 1599 18
	movq	-24(%rbp), %rax
	movq	192(%rax), %rdx
	movl	-28(%rbp), %eax
	cltq
	addq	%rax, %rdx
	movq	-24(%rbp), %rax
	movq	%rdx, 192(%rax)
	jmp	.L187
.L192:
	.loc 1 1586 16
	nop
.L187:
	.loc 1 1600 1
	leave
	.cfi_def_cfa 7, 8
	ret
	.cfi_endproc
.LFE561:
	.size	stbi__skip, .-stbi__skip
	.type	stbi__getn, @function
stbi__getn:
.LFB562:
	.loc 1 1607 1
	.cfi_startproc
	pushq	%rbp
	.cfi_def_cfa_offset 16
	.cfi_offset 6, -16
	movq	%rsp, %rbp
	.cfi_def_cfa_register 6
	subq	$48, %rsp
	movq	%rdi, -24(%rbp)
	movq	%rsi, -32(%rbp)
	movl	%edx, -36(%rbp)
	.loc 1 1608 13
	movq	-24(%rbp), %rax
	movq	16(%rax), %rax
	.loc 1 1608 7
	testq	%rax, %rax
	je	.L194
.LBB759:
	.loc 1 1609 26
	movq	-24(%rbp), %rax
	movq	200(%rax), %rdx
	.loc 1 1609 46
	movq	-24(%rbp), %rax
	movq	192(%rax), %rcx
	.loc 1 1609 43
	movq	%rdx, %rax
	subq	%rcx, %rax
	.loc 1 1609 11
	movl	%eax, -4(%rbp)
	.loc 1 1610 10
	movl	-4(%rbp), %eax
	cmpl	-36(%rbp), %eax
	jge	.L194
.LBB760:
	.loc 1 1613 10
	movl	-4(%rbp), %eax
	movslq	%eax, %rdx
	.loc 1 1613 26
	movq	-24(%rbp), %rax
	movq	192(%rax), %rcx
	.loc 1 1613 10
	movq	-32(%rbp), %rax
	movq	%rcx, %rsi
	movq	%rax, %rdi
	call	memcpy@PLT
	.loc 1 1615 24
	movq	-24(%rbp), %rax
	movq	16(%rax), %rcx
	movl	-36(%rbp), %eax
	subl	-4(%rbp), %eax
	movl	%eax, %edx
	movl	-4(%rbp), %eax
	movslq	%eax, %rsi
	movq	-32(%rbp), %rax
	addq	%rax, %rsi
	movq	-24(%rbp), %rax
	movq	40(%rax), %rax
	movq	%rax, %rdi
	call	*%rcx
.LVL3:
	movl	%eax, -8(%rbp)
	.loc 1 1616 28
	movl	-36(%rbp), %eax
	subl	-4(%rbp), %eax
	.loc 1 1616 23
	cmpl	%eax, -8(%rbp)
	sete	%al
	.loc 1 1616 14
	movzbl	%al, %eax
	movl	%eax, -12(%rbp)
	.loc 1 1617 27
	movq	-24(%rbp), %rax
	movq	200(%rax), %rdx
	.loc 1 1617 24
	movq	-24(%rbp), %rax
	movq	%rdx, 192(%rax)
	.loc 1 1618 17
	movl	-12(%rbp), %eax
	jmp	.L195
.L194:
.LBE760:
.LBE759:
	.loc 1 1622 9
	movq	-24(%rbp), %rax
	movq	192(%rax), %rdx
	.loc 1 1622 21
	movl	-36(%rbp), %eax
	cltq
	addq	%rax, %rdx
	.loc 1 1622 28
	movq	-24(%rbp), %rax
	movq	200(%rax), %rax
	.loc 1 1622 7
	cmpq	%rax, %rdx
	ja	.L196
	.loc 1 1623 7
	movl	-36(%rbp), %eax
	movslq	%eax, %rdx
	.loc 1 1623 23
	movq	-24(%rbp), %rax
	movq	192(%rax), %rcx
	.loc 1 1623 7
	movq	-32(%rbp), %rax
	movq	%rcx, %rsi
	movq	%rax, %rdi
	call	memcpy@PLT
	.loc 1 1624 21
	movq	-24(%rbp), %rax
	movq	192(%rax), %rdx
	movl	-36(%rbp), %eax
	cltq
	addq	%rax, %rdx
	movq	-24(%rbp), %rax
	movq	%rdx, 192(%rax)
	.loc 1 1625 14
	movl	$1, %eax
	jmp	.L195
.L196:
	.loc 1 1627 14
	movl	$0, %eax
.L195:
	.loc 1 1628 1
	leave
	.cfi_def_cfa 7, 8
	ret
	.cfi_endproc
.LFE562:
	.size	stbi__getn, .-stbi__getn
	.type	stbi__get16be, @function
stbi__get16be:
.LFB563:
	.loc 1 1635 1
	.cfi_startproc
	pushq	%rbp
	.cfi_def_cfa_offset 16
	.cfi_offset 6, -16
	movq	%rsp, %rbp
	.cfi_def_cfa_register 6
	pushq	%rbx
	subq	$40, %rsp
	.cfi_offset 3, -24
	movq	%rdi, -40(%rbp)
	.loc 1 1636 12
	movq	-40(%rbp), %rax
	movq	%rax, %rdi
	call	stbi__get8
	.loc 1 1636 8
	movzbl	%al, %eax
	movl	%eax, -20(%rbp)
	.loc 1 1637 14
	movl	-20(%rbp), %eax
	sall	$8, %eax
	movl	%eax, %ebx
	.loc 1 1637 22
	movq	-40(%rbp), %rax
	movq	%rax, %rdi
	call	stbi__get8
	movzbl	%al, %eax
	.loc 1 1637 20
	addl	%ebx, %eax
	.loc 1 1638 1
	movq	-8(%rbp), %rbx
	leave
	.cfi_def_cfa 7, 8
	ret
	.cfi_endproc
.LFE563:
	.size	stbi__get16be, .-stbi__get16be
	.type	stbi__get32be, @function
stbi__get32be:
.LFB564:
	.loc 1 1645 1
	.cfi_startproc
	pushq	%rbp
	.cfi_def_cfa_offset 16
	.cfi_offset 6, -16
	movq	%rsp, %rbp
	.cfi_def_cfa_register 6
	pushq	%rbx
	subq	$40, %rsp
	.cfi_offset 3, -24
	movq	%rdi, -40(%rbp)
	.loc 1 1646 21
	movq	-40(%rbp), %rax
	movq	%rax, %rdi
	call	stbi__get16be
	.loc 1 1646 17
	movl	%eax, -20(%rbp)
	.loc 1 1647 14
	movl	-20(%rbp), %eax
	sall	$16, %eax
	movl	%eax, %ebx
	.loc 1 1647 23
	movq	-40(%rbp), %rax
	movq	%rax, %rdi
	call	stbi__get16be
	.loc 1 1647 21
	addl	%ebx, %eax
	.loc 1 1648 1
	movq	-8(%rbp), %rbx
	leave
	.cfi_def_cfa 7, 8
	ret
	.cfi_endproc
.LFE564:
	.size	stbi__get32be, .-stbi__get32be
	.type	stbi__get16le, @function
stbi__get16le:
.LFB565:
	.loc 1 1655 1
	.cfi_startproc
	pushq	%rbp
	.cfi_def_cfa_offset 16
	.cfi_offset 6, -16
	movq	%rsp, %rbp
	.cfi_def_cfa_register 6
	subq	$32, %rsp
	movq	%rdi, -24(%rbp)
	.loc 1 1656 12
	movq	-24(%rbp), %rax
	movq	%rax, %rdi
	call	stbi__get8
	.loc 1 1656 8
	movzbl	%al, %eax
	movl	%eax, -4(%rbp)
	.loc 1 1657 16
	movq	-24(%rbp), %rax
	movq	%rax, %rdi
	call	stbi__get8
	movzbl	%al, %eax
	.loc 1 1657 30
	sall	$8, %eax
	movl	%eax, %edx
	.loc 1 1657 13
	movl	-4(%rbp), %eax
	addl	%edx, %eax
	.loc 1 1658 1
	leave
	.cfi_def_cfa 7, 8
	ret
	.cfi_endproc
.LFE565:
	.size	stbi__get16le, .-stbi__get16le
	.type	stbi__get32le, @function
stbi__get32le:
.LFB566:
	.loc 1 1663 1
	.cfi_startproc
	pushq	%rbp
	.cfi_def_cfa_offset 16
	.cfi_offset 6, -16
	movq	%rsp, %rbp
	.cfi_def_cfa_register 6
	subq	$32, %rsp
	movq	%rdi, -24(%rbp)
	.loc 1 1664 21
	movq	-24(%rbp), %rax
	movq	%rax, %rdi
	call	stbi__get16le
	.loc 1 1664 17
	movl	%eax, -4(%rbp)
	.loc 1 1665 16
	movq	-24(%rbp), %rax
	movq	%rax, %rdi
	call	stbi__get16le
	.loc 1 1665 33
	sall	$16, %eax
	movl	%eax, %edx
	.loc 1 1665 13
	movl	-4(%rbp), %eax
	addl	%edx, %eax
	.loc 1 1666 1
	leave
	.cfi_def_cfa 7, 8
	ret
	.cfi_endproc
.LFE566:
	.size	stbi__get32le, .-stbi__get32le
	.type	stbi__compute_y, @function
stbi__compute_y:
.LFB567:
	.loc 1 1686 1
	.cfi_startproc
	pushq	%rbp
	.cfi_def_cfa_offset 16
	.cfi_offset 6, -16
	movq	%rsp, %rbp
	.cfi_def_cfa_register 6
	movl	%edi, -4(%rbp)
	movl	%esi, -8(%rbp)
	movl	%edx, -12(%rbp)
	.loc 1 1687 25
	movl	-4(%rbp), %eax
	imull	$77, %eax, %edx
	.loc 1 1687 34
	movl	-8(%rbp), %eax
	imull	$150, %eax, %eax
	.loc 1 1687 30
	addl	%eax, %edx
	.loc 1 1687 46
	movl	-12(%rbp), %eax
	imull	$29, %eax, %eax
	.loc 1 1687 40
	addl	%edx, %eax
	.loc 1 1687 51
	sarl	$8, %eax
	.loc 1 1688 1
	popq	%rbp
	.cfi_def_cfa 7, 8
	ret
	.cfi_endproc
.LFE567:
	.size	stbi__compute_y, .-stbi__compute_y
	.section	.rodata
	.align 8
.LC7:
	.string	"req_comp >= 1 && req_comp <= 4"
.LC8:
	.string	"0"
	.text
	.type	stbi__convert_format, @function
stbi__convert_format:
.LFB568:
	.loc 1 1695 1
	.cfi_startproc
	pushq	%rbp
	.cfi_def_cfa_offset 16
	.cfi_offset 6, -16
	movq	%rsp, %rbp
	.cfi_def_cfa_register 6
	subq	$64, %rsp
	movq	%rdi, -40(%rbp)
	movl	%esi, -44(%rbp)
	movl	%edx, -48(%rbp)
	movl	%ecx, -52(%rbp)
	movl	%r8d, -56(%rbp)
	.loc 1 1699 7
	movl	-48(%rbp), %eax
	cmpl	-44(%rbp), %eax
	jne	.L208
	.loc 1 1699 34 discriminator 1
	movq	-40(%rbp), %rax
	jmp	.L209
.L208:
	.loc 1 1700 4
	cmpl	$0, -48(%rbp)
	jle	.L210
	.loc 1 1700 4 is_stmt 0 discriminator 1
	cmpl	$4, -48(%rbp)
	jle	.L255
.L210:
	.loc 1 1700 4 discriminator 3
	leaq	__PRETTY_FUNCTION__.19(%rip), %rcx
	movl	$1700, %edx
	leaq	.LC2(%rip), %rsi
	leaq	.LC7(%rip), %rdi
	call	__assert_fail@PLT
.L255:
	.loc 1 1702 29 is_stmt 1
	movl	-56(%rbp), %edx
	movl	-52(%rbp), %esi
	movl	-48(%rbp), %eax
	movl	$0, %ecx
	movl	%eax, %edi
	call	stbi__malloc_mad3
	movq	%rax, -32(%rbp)
	.loc 1 1703 7
	cmpq	$0, -32(%rbp)
	jne	.L212
	.loc 1 1704 7
	movq	-40(%rbp), %rax
	movq	%rax, %rdi
	call	free@PLT
	.loc 1 1705 14
	leaq	.LC1(%rip), %rdi
	call	stbi__err
	movl	$0, %eax
	jmp	.L209
.L212:
	.loc 1 1708 10
	movl	$0, -8(%rbp)
	.loc 1 1708 4
	jmp	.L213
.L253:
.LBB761:
	.loc 1 1709 38
	movl	-8(%rbp), %eax
	imull	-52(%rbp), %eax
	movl	%eax, %edx
	.loc 1 1709 42
	movl	-44(%rbp), %eax
	imull	%edx, %eax
	movl	%eax, %edx
	.loc 1 1709 22
	movq	-40(%rbp), %rax
	addq	%rdx, %rax
	movq	%rax, -16(%rbp)
	.loc 1 1710 38
	movl	-8(%rbp), %eax
	imull	-52(%rbp), %eax
	movl	%eax, %edx
	.loc 1 1710 42
	movl	-48(%rbp), %eax
	imull	%edx, %eax
	movl	%eax, %edx
	.loc 1 1710 22
	movq	-32(%rbp), %rax
	addq	%rdx, %rax
	movq	%rax, -24(%rbp)
	.loc 1 1716 15
	movl	-44(%rbp), %eax
	leal	0(,%rax,8), %edx
	movl	-48(%rbp), %eax
	addl	%edx, %eax
	subl	$10, %eax
	cmpl	$25, %eax
	ja	.L254
	movl	%eax, %eax
	leaq	0(,%rax,4), %rdx
	leaq	.L216(%rip), %rax
	movl	(%rdx,%rax), %eax
	cltq
	leaq	.L216(%rip), %rdx
	addq	%rdx, %rax
	jmp	*%rax
	.section	.rodata
	.align 4
	.align 4
.L216:
	.long	.L227-.L216
	.long	.L226-.L216
	.long	.L225-.L216
	.long	.L254-.L216
	.long	.L254-.L216
	.long	.L254-.L216
	.long	.L254-.L216
	.long	.L224-.L216
	.long	.L254-.L216
	.long	.L223-.L216
	.long	.L222-.L216
	.long	.L254-.L216
	.long	.L254-.L216
	.long	.L254-.L216
	.long	.L254-.L216
	.long	.L221-.L216
	.long	.L220-.L216
	.long	.L254-.L216
	.long	.L219-.L216
	.long	.L254-.L216
	.long	.L254-.L216
	.long	.L254-.L216
	.long	.L254-.L216
	.long	.L218-.L216
	.long	.L217-.L216
	.long	.L215-.L216
	.text
.L227:
	.loc 1 1717 10
	movl	-52(%rbp), %eax
	subl	$1, %eax
	movl	%eax, -4(%rbp)
	jmp	.L228
.L229:
	.loc 1 1717 39 discriminator 3
	movq	-16(%rbp), %rax
	movzbl	(%rax), %edx
	.loc 1 1717 35 discriminator 3
	movq	-24(%rbp), %rax
	movb	%dl, (%rax)
	.loc 1 1717 48 discriminator 3
	movq	-24(%rbp), %rax
	addq	$1, %rax
	.loc 1 1717 51 discriminator 3
	movb	$-1, (%rax)
	.loc 1 1717 10 discriminator 3
	subl	$1, -4(%rbp)
	addq	$1, -16(%rbp)
	addq	$2, -24(%rbp)
.L228:
	.loc 1 1717 10 is_stmt 0 discriminator 1
	cmpl	$0, -4(%rbp)
	jns	.L229
	.loc 1 1717 10
	jmp	.L230
.L226:
	.loc 1 1718 10 is_stmt 1
	movl	-52(%rbp), %eax
	subl	$1, %eax
	movl	%eax, -4(%rbp)
	jmp	.L231
.L232:
	.loc 1 1718 48 discriminator 3
	movq	-24(%rbp), %rax
	leaq	2(%rax), %rdx
	.loc 1 1718 55 discriminator 3
	movq	-16(%rbp), %rax
	movzbl	(%rax), %eax
	.loc 1 1718 51 discriminator 3
	movb	%al, (%rdx)
	.loc 1 1718 40 discriminator 3
	movq	-24(%rbp), %rax
	addq	$1, %rax
	.loc 1 1718 48 discriminator 3
	movzbl	(%rdx), %edx
	.loc 1 1718 43 discriminator 3
	movb	%dl, (%rax)
	.loc 1 1718 40 discriminator 3
	movzbl	(%rax), %edx
	.loc 1 1718 35 discriminator 3
	movq	-24(%rbp), %rax
	movb	%dl, (%rax)
	.loc 1 1718 10 discriminator 3
	subl	$1, -4(%rbp)
	addq	$1, -16(%rbp)
	addq	$3, -24(%rbp)
.L231:
	.loc 1 1718 10 is_stmt 0 discriminator 1
	cmpl	$0, -4(%rbp)
	jns	.L232
	.loc 1 1718 10
	jmp	.L230
.L225:
	.loc 1 1719 10 is_stmt 1
	movl	-52(%rbp), %eax
	subl	$1, %eax
	movl	%eax, -4(%rbp)
	jmp	.L233
.L234:
	.loc 1 1719 48 discriminator 3
	movq	-24(%rbp), %rax
	leaq	2(%rax), %rdx
	.loc 1 1719 55 discriminator 3
	movq	-16(%rbp), %rax
	movzbl	(%rax), %eax
	.loc 1 1719 51 discriminator 3
	movb	%al, (%rdx)
	.loc 1 1719 40 discriminator 3
	movq	-24(%rbp), %rax
	addq	$1, %rax
	.loc 1 1719 48 discriminator 3
	movzbl	(%rdx), %edx
	.loc 1 1719 43 discriminator 3
	movb	%dl, (%rax)
	.loc 1 1719 40 discriminator 3
	movzbl	(%rax), %edx
	.loc 1 1719 35 discriminator 3
	movq	-24(%rbp), %rax
	movb	%dl, (%rax)
	.loc 1 1719 64 discriminator 3
	movq	-24(%rbp), %rax
	addq	$3, %rax
	.loc 1 1719 67 discriminator 3
	movb	$-1, (%rax)
	.loc 1 1719 10 discriminator 3
	subl	$1, -4(%rbp)
	addq	$1, -16(%rbp)
	addq	$4, -24(%rbp)
.L233:
	.loc 1 1719 10 is_stmt 0 discriminator 1
	cmpl	$0, -4(%rbp)
	jns	.L234
	.loc 1 1719 10
	jmp	.L230
.L224:
	.loc 1 1720 10 is_stmt 1
	movl	-52(%rbp), %eax
	subl	$1, %eax
	movl	%eax, -4(%rbp)
	jmp	.L235
.L236:
	.loc 1 1720 39 discriminator 3
	movq	-16(%rbp), %rax
	movzbl	(%rax), %edx
	.loc 1 1720 35 discriminator 3
	movq	-24(%rbp), %rax
	movb	%dl, (%rax)
	.loc 1 1720 10 discriminator 3
	subl	$1, -4(%rbp)
	addq	$2, -16(%rbp)
	addq	$1, -24(%rbp)
.L235:
	.loc 1 1720 10 is_stmt 0 discriminator 1
	cmpl	$0, -4(%rbp)
	jns	.L236
	.loc 1 1720 10
	jmp	.L230
.L223:
	.loc 1 1721 10 is_stmt 1
	movl	-52(%rbp), %eax
	subl	$1, %eax
	movl	%eax, -4(%rbp)
	jmp	.L237
.L238:
	.loc 1 1721 48 discriminator 3
	movq	-24(%rbp), %rax
	leaq	2(%rax), %rdx
	.loc 1 1721 55 discriminator 3
	movq	-16(%rbp), %rax
	movzbl	(%rax), %eax
	.loc 1 1721 51 discriminator 3
	movb	%al, (%rdx)
	.loc 1 1721 40 discriminator 3
	movq	-24(%rbp), %rax
	addq	$1, %rax
	.loc 1 1721 48 discriminator 3
	movzbl	(%rdx), %edx
	.loc 1 1721 43 discriminator 3
	movb	%dl, (%rax)
	.loc 1 1721 40 discriminator 3
	movzbl	(%rax), %edx
	.loc 1 1721 35 discriminator 3
	movq	-24(%rbp), %rax
	movb	%dl, (%rax)
	.loc 1 1721 10 discriminator 3
	subl	$1, -4(%rbp)
	addq	$2, -16(%rbp)
	addq	$3, -24(%rbp)
.L237:
	.loc 1 1721 10 is_stmt 0 discriminator 1
	cmpl	$0, -4(%rbp)
	jns	.L238
	.loc 1 1721 10
	jmp	.L230
.L222:
	.loc 1 1722 10 is_stmt 1
	movl	-52(%rbp), %eax
	subl	$1, %eax
	movl	%eax, -4(%rbp)
	jmp	.L239
.L240:
	.loc 1 1722 48 discriminator 3
	movq	-24(%rbp), %rax
	leaq	2(%rax), %rdx
	.loc 1 1722 55 discriminator 3
	movq	-16(%rbp), %rax
	movzbl	(%rax), %eax
	.loc 1 1722 51 discriminator 3
	movb	%al, (%rdx)
	.loc 1 1722 40 discriminator 3
	movq	-24(%rbp), %rax
	addq	$1, %rax
	.loc 1 1722 48 discriminator 3
	movzbl	(%rdx), %edx
	.loc 1 1722 43 discriminator 3
	movb	%dl, (%rax)
	.loc 1 1722 40 discriminator 3
	movzbl	(%rax), %edx
	.loc 1 1722 35 discriminator 3
	movq	-24(%rbp), %rax
	movb	%dl, (%rax)
	.loc 1 1722 64 discriminator 3
	movq	-24(%rbp), %rax
	leaq	3(%rax), %rdx
	.loc 1 1722 67 discriminator 3
	movq	-16(%rbp), %rax
	movzbl	1(%rax), %eax
	movb	%al, (%rdx)
	.loc 1 1722 10 discriminator 3
	subl	$1, -4(%rbp)
	addq	$2, -16(%rbp)
	addq	$4, -24(%rbp)
.L239:
	.loc 1 1722 10 is_stmt 0 discriminator 1
	cmpl	$0, -4(%rbp)
	jns	.L240
	.loc 1 1722 10
	jmp	.L230
.L219:
	.loc 1 1723 10 is_stmt 1
	movl	-52(%rbp), %eax
	subl	$1, %eax
	movl	%eax, -4(%rbp)
	jmp	.L241
.L242:
	.loc 1 1723 39 discriminator 3
	movq	-16(%rbp), %rax
	movzbl	(%rax), %edx
	.loc 1 1723 35 discriminator 3
	movq	-24(%rbp), %rax
	movb	%dl, (%rax)
	.loc 1 1723 47 discriminator 3
	movq	-24(%rbp), %rax
	leaq	1(%rax), %rdx
	.loc 1 1723 50 discriminator 3
	movq	-16(%rbp), %rax
	movzbl	1(%rax), %eax
	movb	%al, (%rdx)
	.loc 1 1723 62 discriminator 3
	movq	-24(%rbp), %rax
	leaq	2(%rax), %rdx
	.loc 1 1723 65 discriminator 3
	movq	-16(%rbp), %rax
	movzbl	2(%rax), %eax
	movb	%al, (%rdx)
	.loc 1 1723 77 discriminator 3
	movq	-24(%rbp), %rax
	addq	$3, %rax
	.loc 1 1723 80 discriminator 3
	movb	$-1, (%rax)
	.loc 1 1723 10 discriminator 3
	subl	$1, -4(%rbp)
	addq	$3, -16(%rbp)
	addq	$4, -24(%rbp)
.L241:
	.loc 1 1723 10 is_stmt 0 discriminator 1
	cmpl	$0, -4(%rbp)
	jns	.L242
	.loc 1 1723 10
	jmp	.L230
.L221:
	.loc 1 1724 10 is_stmt 1
	movl	-52(%rbp), %eax
	subl	$1, %eax
	movl	%eax, -4(%rbp)
	jmp	.L243
.L244:
	.loc 1 1724 69 discriminator 3
	movq	-16(%rbp), %rax
	addq	$2, %rax
	movzbl	(%rax), %eax
	.loc 1 1724 36 discriminator 3
	movzbl	%al, %edx
	.loc 1 1724 62 discriminator 3
	movq	-16(%rbp), %rax
	addq	$1, %rax
	movzbl	(%rax), %eax
	.loc 1 1724 36 discriminator 3
	movzbl	%al, %ecx
	.loc 1 1724 55 discriminator 3
	movq	-16(%rbp), %rax
	movzbl	(%rax), %eax
	.loc 1 1724 36 discriminator 3
	movzbl	%al, %eax
	movl	%ecx, %esi
	movl	%eax, %edi
	call	stbi__compute_y
	.loc 1 1724 35 discriminator 3
	movq	-24(%rbp), %rdx
	movb	%al, (%rdx)
	.loc 1 1724 10 discriminator 3
	subl	$1, -4(%rbp)
	addq	$3, -16(%rbp)
	addq	$1, -24(%rbp)
.L243:
	.loc 1 1724 10 is_stmt 0 discriminator 1
	cmpl	$0, -4(%rbp)
	jns	.L244
	.loc 1 1724 10
	jmp	.L230
.L220:
	.loc 1 1725 10 is_stmt 1
	movl	-52(%rbp), %eax
	subl	$1, %eax
	movl	%eax, -4(%rbp)
	jmp	.L245
.L246:
	.loc 1 1725 69 discriminator 3
	movq	-16(%rbp), %rax
	addq	$2, %rax
	movzbl	(%rax), %eax
	.loc 1 1725 36 discriminator 3
	movzbl	%al, %edx
	.loc 1 1725 62 discriminator 3
	movq	-16(%rbp), %rax
	addq	$1, %rax
	movzbl	(%rax), %eax
	.loc 1 1725 36 discriminator 3
	movzbl	%al, %ecx
	.loc 1 1725 55 discriminator 3
	movq	-16(%rbp), %rax
	movzbl	(%rax), %eax
	.loc 1 1725 36 discriminator 3
	movzbl	%al, %eax
	movl	%ecx, %esi
	movl	%eax, %edi
	call	stbi__compute_y
	.loc 1 1725 35 discriminator 3
	movq	-24(%rbp), %rdx
	movb	%al, (%rdx)
	.loc 1 1725 79 discriminator 3
	movq	-24(%rbp), %rax
	addq	$1, %rax
	.loc 1 1725 83 discriminator 3
	movb	$-1, (%rax)
	.loc 1 1725 10 discriminator 3
	subl	$1, -4(%rbp)
	addq	$3, -16(%rbp)
	addq	$2, -24(%rbp)
.L245:
	.loc 1 1725 10 is_stmt 0 discriminator 1
	cmpl	$0, -4(%rbp)
	jns	.L246
	.loc 1 1725 10
	jmp	.L230
.L218:
	.loc 1 1726 10 is_stmt 1
	movl	-52(%rbp), %eax
	subl	$1, %eax
	movl	%eax, -4(%rbp)
	jmp	.L247
.L248:
	.loc 1 1726 69 discriminator 3
	movq	-16(%rbp), %rax
	addq	$2, %rax
	movzbl	(%rax), %eax
	.loc 1 1726 36 discriminator 3
	movzbl	%al, %edx
	.loc 1 1726 62 discriminator 3
	movq	-16(%rbp), %rax
	addq	$1, %rax
	movzbl	(%rax), %eax
	.loc 1 1726 36 discriminator 3
	movzbl	%al, %ecx
	.loc 1 1726 55 discriminator 3
	movq	-16(%rbp), %rax
	movzbl	(%rax), %eax
	.loc 1 1726 36 discriminator 3
	movzbl	%al, %eax
	movl	%ecx, %esi
	movl	%eax, %edi
	call	stbi__compute_y
	.loc 1 1726 35 discriminator 3
	movq	-24(%rbp), %rdx
	movb	%al, (%rdx)
	.loc 1 1726 10 discriminator 3
	subl	$1, -4(%rbp)
	addq	$4, -16(%rbp)
	addq	$1, -24(%rbp)
.L247:
	.loc 1 1726 10 is_stmt 0 discriminator 1
	cmpl	$0, -4(%rbp)
	jns	.L248
	.loc 1 1726 10
	jmp	.L230
.L217:
	.loc 1 1727 10 is_stmt 1
	movl	-52(%rbp), %eax
	subl	$1, %eax
	movl	%eax, -4(%rbp)
	jmp	.L249
.L250:
	.loc 1 1727 69 discriminator 3
	movq	-16(%rbp), %rax
	addq	$2, %rax
	movzbl	(%rax), %eax
	.loc 1 1727 36 discriminator 3
	movzbl	%al, %edx
	.loc 1 1727 62 discriminator 3
	movq	-16(%rbp), %rax
	addq	$1, %rax
	movzbl	(%rax), %eax
	.loc 1 1727 36 discriminator 3
	movzbl	%al, %ecx
	.loc 1 1727 55 discriminator 3
	movq	-16(%rbp), %rax
	movzbl	(%rax), %eax
	.loc 1 1727 36 discriminator 3
	movzbl	%al, %eax
	movl	%ecx, %esi
	movl	%eax, %edi
	call	stbi__compute_y
	.loc 1 1727 35 discriminator 3
	movq	-24(%rbp), %rdx
	movb	%al, (%rdx)
	.loc 1 1727 79 discriminator 3
	movq	-24(%rbp), %rax
	leaq	1(%rax), %rdx
	.loc 1 1727 83 discriminator 3
	movq	-16(%rbp), %rax
	movzbl	3(%rax), %eax
	movb	%al, (%rdx)
	.loc 1 1727 10 discriminator 3
	subl	$1, -4(%rbp)
	addq	$4, -16(%rbp)
	addq	$2, -24(%rbp)
.L249:
	.loc 1 1727 10 is_stmt 0 discriminator 1
	cmpl	$0, -4(%rbp)
	jns	.L250
	.loc 1 1727 10
	jmp	.L230
.L215:
	.loc 1 1728 10 is_stmt 1
	movl	-52(%rbp), %eax
	subl	$1, %eax
	movl	%eax, -4(%rbp)
	jmp	.L251
.L252:
	.loc 1 1728 39 discriminator 3
	movq	-16(%rbp), %rax
	movzbl	(%rax), %edx
	.loc 1 1728 35 discriminator 3
	movq	-24(%rbp), %rax
	movb	%dl, (%rax)
	.loc 1 1728 47 discriminator 3
	movq	-24(%rbp), %rax
	leaq	1(%rax), %rdx
	.loc 1 1728 50 discriminator 3
	movq	-16(%rbp), %rax
	movzbl	1(%rax), %eax
	movb	%al, (%rdx)
	.loc 1 1728 62 discriminator 3
	movq	-24(%rbp), %rax
	leaq	2(%rax), %rdx
	.loc 1 1728 65 discriminator 3
	movq	-16(%rbp), %rax
	movzbl	2(%rax), %eax
	movb	%al, (%rdx)
	.loc 1 1728 10 discriminator 3
	subl	$1, -4(%rbp)
	addq	$4, -16(%rbp)
	addq	$3, -24(%rbp)
.L251:
	.loc 1 1728 10 is_stmt 0 discriminator 1
	cmpl	$0, -4(%rbp)
	jns	.L252
	.loc 1 1728 10
	jmp	.L230
.L254:
	.loc 1 1729 19 is_stmt 1 discriminator 1
	leaq	__PRETTY_FUNCTION__.19(%rip), %rcx
	movl	$1729, %edx
	leaq	.LC2(%rip), %rsi
	leaq	.LC8(%rip), %rdi
	call	__assert_fail@PLT
.L230:
.LBE761:
	.loc 1 1708 27 discriminator 2
	addl	$1, -8(%rbp)
.L213:
	.loc 1 1708 18 discriminator 1
	movl	-56(%rbp), %eax
	.loc 1 1708 4 discriminator 1
	cmpl	%eax, -8(%rbp)
	jl	.L253
	.loc 1 1734 4
	movq	-40(%rbp), %rax
	movq	%rax, %rdi
	call	free@PLT
	.loc 1 1735 11
	movq	-32(%rbp), %rax
.L209:
	.loc 1 1736 1
	leave
	.cfi_def_cfa 7, 8
	ret
	.cfi_endproc
.LFE568:
	.size	stbi__convert_format, .-stbi__convert_format
	.type	stbi__compute_y_16, @function
stbi__compute_y_16:
.LFB569:
	.loc 1 1743 1
	.cfi_startproc
	pushq	%rbp
	.cfi_def_cfa_offset 16
	.cfi_offset 6, -16
	movq	%rsp, %rbp
	.cfi_def_cfa_register 6
	movl	%edi, -4(%rbp)
	movl	%esi, -8(%rbp)
	movl	%edx, -12(%rbp)
	.loc 1 1744 30
	movl	-4(%rbp), %eax
	imull	$77, %eax, %edx
	.loc 1 1744 39
	movl	-8(%rbp), %eax
	imull	$150, %eax, %eax
	.loc 1 1744 35
	addl	%eax, %edx
	.loc 1 1744 51
	movl	-12(%rbp), %eax
	imull	$29, %eax, %eax
	.loc 1 1744 45
	addl	%edx, %eax
	.loc 1 1744 56
	sarl	$8, %eax
	.loc 1 1745 1
	popq	%rbp
	.cfi_def_cfa 7, 8
	ret
	.cfi_endproc
.LFE569:
	.size	stbi__compute_y_16, .-stbi__compute_y_16
	.type	stbi__convert_format16, @function
stbi__convert_format16:
.LFB570:
	.loc 1 1752 1
	.cfi_startproc
	pushq	%rbp
	.cfi_def_cfa_offset 16
	.cfi_offset 6, -16
	movq	%rsp, %rbp
	.cfi_def_cfa_register 6
	subq	$64, %rsp
	movq	%rdi, -40(%rbp)
	movl	%esi, -44(%rbp)
	movl	%edx, -48(%rbp)
	movl	%ecx, -52(%rbp)
	movl	%r8d, -56(%rbp)
	.loc 1 1756 7
	movl	-48(%rbp), %eax
	cmpl	-44(%rbp), %eax
	jne	.L259
	.loc 1 1756 34 discriminator 1
	movq	-40(%rbp), %rax
	jmp	.L260
.L259:
	.loc 1 1757 4
	cmpl	$0, -48(%rbp)
	jle	.L261
	.loc 1 1757 4 is_stmt 0 discriminator 1
	cmpl	$4, -48(%rbp)
	jle	.L306
.L261:
	.loc 1 1757 4 discriminator 3
	leaq	__PRETTY_FUNCTION__.18(%rip), %rcx
	movl	$1757, %edx
	leaq	.LC2(%rip), %rsi
	leaq	.LC7(%rip), %rdi
	call	__assert_fail@PLT
.L306:
	.loc 1 1759 50 is_stmt 1
	movl	-48(%rbp), %eax
	imull	-52(%rbp), %eax
	.loc 1 1759 54
	imull	-56(%rbp), %eax
	.loc 1 1759 58
	addl	%eax, %eax
	.loc 1 1759 28
	movl	%eax, %eax
	movq	%rax, %rdi
	call	stbi__malloc
	movq	%rax, -32(%rbp)
	.loc 1 1760 7
	cmpq	$0, -32(%rbp)
	jne	.L263
	.loc 1 1761 7
	movq	-40(%rbp), %rax
	movq	%rax, %rdi
	call	free@PLT
	.loc 1 1762 31
	leaq	.LC1(%rip), %rdi
	call	stbi__err
	.loc 1 1762 14
	movl	$0, %eax
	jmp	.L260
.L263:
	.loc 1 1765 10
	movl	$0, -8(%rbp)
	.loc 1 1765 4
	jmp	.L264
.L304:
.LBB762:
	.loc 1 1766 37
	movl	-8(%rbp), %eax
	imull	-52(%rbp), %eax
	movl	%eax, %edx
	.loc 1 1766 41
	movl	-44(%rbp), %eax
	imull	%edx, %eax
	movl	%eax, %eax
	.loc 1 1766 33
	leaq	(%rax,%rax), %rdx
	.loc 1 1766 21
	movq	-40(%rbp), %rax
	addq	%rdx, %rax
	movq	%rax, -16(%rbp)
	.loc 1 1767 37
	movl	-8(%rbp), %eax
	imull	-52(%rbp), %eax
	movl	%eax, %edx
	.loc 1 1767 41
	movl	-48(%rbp), %eax
	imull	%edx, %eax
	movl	%eax, %eax
	.loc 1 1767 33
	leaq	(%rax,%rax), %rdx
	.loc 1 1767 21
	movq	-32(%rbp), %rax
	addq	%rdx, %rax
	movq	%rax, -24(%rbp)
	.loc 1 1773 15
	movl	-44(%rbp), %eax
	leal	0(,%rax,8), %edx
	movl	-48(%rbp), %eax
	addl	%edx, %eax
	subl	$10, %eax
	cmpl	$25, %eax
	ja	.L305
	movl	%eax, %eax
	leaq	0(,%rax,4), %rdx
	leaq	.L267(%rip), %rax
	movl	(%rdx,%rax), %eax
	cltq
	leaq	.L267(%rip), %rdx
	addq	%rdx, %rax
	jmp	*%rax
	.section	.rodata
	.align 4
	.align 4
.L267:
	.long	.L278-.L267
	.long	.L277-.L267
	.long	.L276-.L267
	.long	.L305-.L267
	.long	.L305-.L267
	.long	.L305-.L267
	.long	.L305-.L267
	.long	.L275-.L267
	.long	.L305-.L267
	.long	.L274-.L267
	.long	.L273-.L267
	.long	.L305-.L267
	.long	.L305-.L267
	.long	.L305-.L267
	.long	.L305-.L267
	.long	.L272-.L267
	.long	.L271-.L267
	.long	.L305-.L267
	.long	.L270-.L267
	.long	.L305-.L267
	.long	.L305-.L267
	.long	.L305-.L267
	.long	.L305-.L267
	.long	.L269-.L267
	.long	.L268-.L267
	.long	.L266-.L267
	.text
.L278:
	.loc 1 1774 10
	movl	-52(%rbp), %eax
	subl	$1, %eax
	movl	%eax, -4(%rbp)
	jmp	.L279
.L280:
	.loc 1 1774 39 discriminator 3
	movq	-16(%rbp), %rax
	movzwl	(%rax), %edx
	.loc 1 1774 35 discriminator 3
	movq	-24(%rbp), %rax
	movw	%dx, (%rax)
	.loc 1 1774 48 discriminator 3
	movq	-24(%rbp), %rax
	addq	$2, %rax
	.loc 1 1774 51 discriminator 3
	movw	$-1, (%rax)
	.loc 1 1774 10 discriminator 3
	subl	$1, -4(%rbp)
	addq	$2, -16(%rbp)
	addq	$4, -24(%rbp)
.L279:
	.loc 1 1774 10 is_stmt 0 discriminator 1
	cmpl	$0, -4(%rbp)
	jns	.L280
	.loc 1 1774 10
	jmp	.L281
.L277:
	.loc 1 1775 10 is_stmt 1
	movl	-52(%rbp), %eax
	subl	$1, %eax
	movl	%eax, -4(%rbp)
	jmp	.L282
.L283:
	.loc 1 1775 48 discriminator 3
	movq	-24(%rbp), %rax
	leaq	4(%rax), %rdx
	.loc 1 1775 55 discriminator 3
	movq	-16(%rbp), %rax
	movzwl	(%rax), %eax
	.loc 1 1775 51 discriminator 3
	movw	%ax, (%rdx)
	.loc 1 1775 40 discriminator 3
	movq	-24(%rbp), %rax
	addq	$2, %rax
	.loc 1 1775 48 discriminator 3
	movzwl	(%rdx), %edx
	.loc 1 1775 43 discriminator 3
	movw	%dx, (%rax)
	.loc 1 1775 40 discriminator 3
	movzwl	(%rax), %edx
	.loc 1 1775 35 discriminator 3
	movq	-24(%rbp), %rax
	movw	%dx, (%rax)
	.loc 1 1775 10 discriminator 3
	subl	$1, -4(%rbp)
	addq	$2, -16(%rbp)
	addq	$6, -24(%rbp)
.L282:
	.loc 1 1775 10 is_stmt 0 discriminator 1
	cmpl	$0, -4(%rbp)
	jns	.L283
	.loc 1 1775 10
	jmp	.L281
.L276:
	.loc 1 1776 10 is_stmt 1
	movl	-52(%rbp), %eax
	subl	$1, %eax
	movl	%eax, -4(%rbp)
	jmp	.L284
.L285:
	.loc 1 1776 48 discriminator 3
	movq	-24(%rbp), %rax
	leaq	4(%rax), %rdx
	.loc 1 1776 55 discriminator 3
	movq	-16(%rbp), %rax
	movzwl	(%rax), %eax
	.loc 1 1776 51 discriminator 3
	movw	%ax, (%rdx)
	.loc 1 1776 40 discriminator 3
	movq	-24(%rbp), %rax
	addq	$2, %rax
	.loc 1 1776 48 discriminator 3
	movzwl	(%rdx), %edx
	.loc 1 1776 43 discriminator 3
	movw	%dx, (%rax)
	.loc 1 1776 40 discriminator 3
	movzwl	(%rax), %edx
	.loc 1 1776 35 discriminator 3
	movq	-24(%rbp), %rax
	movw	%dx, (%rax)
	.loc 1 1776 64 discriminator 3
	movq	-24(%rbp), %rax
	addq	$6, %rax
	.loc 1 1776 67 discriminator 3
	movw	$-1, (%rax)
	.loc 1 1776 10 discriminator 3
	subl	$1, -4(%rbp)
	addq	$2, -16(%rbp)
	addq	$8, -24(%rbp)
.L284:
	.loc 1 1776 10 is_stmt 0 discriminator 1
	cmpl	$0, -4(%rbp)
	jns	.L285
	.loc 1 1776 10
	jmp	.L281
.L275:
	.loc 1 1777 10 is_stmt 1
	movl	-52(%rbp), %eax
	subl	$1, %eax
	movl	%eax, -4(%rbp)
	jmp	.L286
.L287:
	.loc 1 1777 39 discriminator 3
	movq	-16(%rbp), %rax
	movzwl	(%rax), %edx
	.loc 1 1777 35 discriminator 3
	movq	-24(%rbp), %rax
	movw	%dx, (%rax)
	.loc 1 1777 10 discriminator 3
	subl	$1, -4(%rbp)
	addq	$4, -16(%rbp)
	addq	$2, -24(%rbp)
.L286:
	.loc 1 1777 10 is_stmt 0 discriminator 1
	cmpl	$0, -4(%rbp)
	jns	.L287
	.loc 1 1777 10
	jmp	.L281
.L274:
	.loc 1 1778 10 is_stmt 1
	movl	-52(%rbp), %eax
	subl	$1, %eax
	movl	%eax, -4(%rbp)
	jmp	.L288
.L289:
	.loc 1 1778 48 discriminator 3
	movq	-24(%rbp), %rax
	leaq	4(%rax), %rdx
	.loc 1 1778 55 discriminator 3
	movq	-16(%rbp), %rax
	movzwl	(%rax), %eax
	.loc 1 1778 51 discriminator 3
	movw	%ax, (%rdx)
	.loc 1 1778 40 discriminator 3
	movq	-24(%rbp), %rax
	addq	$2, %rax
	.loc 1 1778 48 discriminator 3
	movzwl	(%rdx), %edx
	.loc 1 1778 43 discriminator 3
	movw	%dx, (%rax)
	.loc 1 1778 40 discriminator 3
	movzwl	(%rax), %edx
	.loc 1 1778 35 discriminator 3
	movq	-24(%rbp), %rax
	movw	%dx, (%rax)
	.loc 1 1778 10 discriminator 3
	subl	$1, -4(%rbp)
	addq	$4, -16(%rbp)
	addq	$6, -24(%rbp)
.L288:
	.loc 1 1778 10 is_stmt 0 discriminator 1
	cmpl	$0, -4(%rbp)
	jns	.L289
	.loc 1 1778 10
	jmp	.L281
.L273:
	.loc 1 1779 10 is_stmt 1
	movl	-52(%rbp), %eax
	subl	$1, %eax
	movl	%eax, -4(%rbp)
	jmp	.L290
.L291:
	.loc 1 1779 48 discriminator 3
	movq	-24(%rbp), %rax
	leaq	4(%rax), %rdx
	.loc 1 1779 55 discriminator 3
	movq	-16(%rbp), %rax
	movzwl	(%rax), %eax
	.loc 1 1779 51 discriminator 3
	movw	%ax, (%rdx)
	.loc 1 1779 40 discriminator 3
	movq	-24(%rbp), %rax
	addq	$2, %rax
	.loc 1 1779 48 discriminator 3
	movzwl	(%rdx), %edx
	.loc 1 1779 43 discriminator 3
	movw	%dx, (%rax)
	.loc 1 1779 40 discriminator 3
	movzwl	(%rax), %edx
	.loc 1 1779 35 discriminator 3
	movq	-24(%rbp), %rax
	movw	%dx, (%rax)
	.loc 1 1779 64 discriminator 3
	movq	-24(%rbp), %rax
	leaq	6(%rax), %rdx
	.loc 1 1779 67 discriminator 3
	movq	-16(%rbp), %rax
	movzwl	2(%rax), %eax
	movw	%ax, (%rdx)
	.loc 1 1779 10 discriminator 3
	subl	$1, -4(%rbp)
	addq	$4, -16(%rbp)
	addq	$8, -24(%rbp)
.L290:
	.loc 1 1779 10 is_stmt 0 discriminator 1
	cmpl	$0, -4(%rbp)
	jns	.L291
	.loc 1 1779 10
	jmp	.L281
.L270:
	.loc 1 1780 10 is_stmt 1
	movl	-52(%rbp), %eax
	subl	$1, %eax
	movl	%eax, -4(%rbp)
	jmp	.L292
.L293:
	.loc 1 1780 39 discriminator 3
	movq	-16(%rbp), %rax
	movzwl	(%rax), %edx
	.loc 1 1780 35 discriminator 3
	movq	-24(%rbp), %rax
	movw	%dx, (%rax)
	.loc 1 1780 47 discriminator 3
	movq	-24(%rbp), %rax
	leaq	2(%rax), %rdx
	.loc 1 1780 50 discriminator 3
	movq	-16(%rbp), %rax
	movzwl	2(%rax), %eax
	movw	%ax, (%rdx)
	.loc 1 1780 62 discriminator 3
	movq	-24(%rbp), %rax
	leaq	4(%rax), %rdx
	.loc 1 1780 65 discriminator 3
	movq	-16(%rbp), %rax
	movzwl	4(%rax), %eax
	movw	%ax, (%rdx)
	.loc 1 1780 77 discriminator 3
	movq	-24(%rbp), %rax
	addq	$6, %rax
	.loc 1 1780 80 discriminator 3
	movw	$-1, (%rax)
	.loc 1 1780 10 discriminator 3
	subl	$1, -4(%rbp)
	addq	$6, -16(%rbp)
	addq	$8, -24(%rbp)
.L292:
	.loc 1 1780 10 is_stmt 0 discriminator 1
	cmpl	$0, -4(%rbp)
	jns	.L293
	.loc 1 1780 10
	jmp	.L281
.L272:
	.loc 1 1781 10 is_stmt 1
	movl	-52(%rbp), %eax
	subl	$1, %eax
	movl	%eax, -4(%rbp)
	jmp	.L294
.L295:
	.loc 1 1781 72 discriminator 3
	movq	-16(%rbp), %rax
	addq	$4, %rax
	movzwl	(%rax), %eax
	.loc 1 1781 36 discriminator 3
	movzwl	%ax, %edx
	.loc 1 1781 65 discriminator 3
	movq	-16(%rbp), %rax
	addq	$2, %rax
	movzwl	(%rax), %eax
	.loc 1 1781 36 discriminator 3
	movzwl	%ax, %ecx
	.loc 1 1781 58 discriminator 3
	movq	-16(%rbp), %rax
	movzwl	(%rax), %eax
	.loc 1 1781 36 discriminator 3
	movzwl	%ax, %eax
	movl	%ecx, %esi
	movl	%eax, %edi
	call	stbi__compute_y_16
	.loc 1 1781 35 discriminator 3
	movq	-24(%rbp), %rdx
	movw	%ax, (%rdx)
	.loc 1 1781 10 discriminator 3
	subl	$1, -4(%rbp)
	addq	$6, -16(%rbp)
	addq	$2, -24(%rbp)
.L294:
	.loc 1 1781 10 is_stmt 0 discriminator 1
	cmpl	$0, -4(%rbp)
	jns	.L295
	.loc 1 1781 10
	jmp	.L281
.L271:
	.loc 1 1782 10 is_stmt 1
	movl	-52(%rbp), %eax
	subl	$1, %eax
	movl	%eax, -4(%rbp)
	jmp	.L296
.L297:
	.loc 1 1782 72 discriminator 3
	movq	-16(%rbp), %rax
	addq	$4, %rax
	movzwl	(%rax), %eax
	.loc 1 1782 36 discriminator 3
	movzwl	%ax, %edx
	.loc 1 1782 65 discriminator 3
	movq	-16(%rbp), %rax
	addq	$2, %rax
	movzwl	(%rax), %eax
	.loc 1 1782 36 discriminator 3
	movzwl	%ax, %ecx
	.loc 1 1782 58 discriminator 3
	movq	-16(%rbp), %rax
	movzwl	(%rax), %eax
	.loc 1 1782 36 discriminator 3
	movzwl	%ax, %eax
	movl	%ecx, %esi
	movl	%eax, %edi
	call	stbi__compute_y_16
	.loc 1 1782 35 discriminator 3
	movq	-24(%rbp), %rdx
	movw	%ax, (%rdx)
	.loc 1 1782 82 discriminator 3
	movq	-24(%rbp), %rax
	addq	$2, %rax
	.loc 1 1782 86 discriminator 3
	movw	$-1, (%rax)
	.loc 1 1782 10 discriminator 3
	subl	$1, -4(%rbp)
	addq	$6, -16(%rbp)
	addq	$4, -24(%rbp)
.L296:
	.loc 1 1782 10 is_stmt 0 discriminator 1
	cmpl	$0, -4(%rbp)
	jns	.L297
	.loc 1 1782 10
	jmp	.L281
.L269:
	.loc 1 1783 10 is_stmt 1
	movl	-52(%rbp), %eax
	subl	$1, %eax
	movl	%eax, -4(%rbp)
	jmp	.L298
.L299:
	.loc 1 1783 72 discriminator 3
	movq	-16(%rbp), %rax
	addq	$4, %rax
	movzwl	(%rax), %eax
	.loc 1 1783 36 discriminator 3
	movzwl	%ax, %edx
	.loc 1 1783 65 discriminator 3
	movq	-16(%rbp), %rax
	addq	$2, %rax
	movzwl	(%rax), %eax
	.loc 1 1783 36 discriminator 3
	movzwl	%ax, %ecx
	.loc 1 1783 58 discriminator 3
	movq	-16(%rbp), %rax
	movzwl	(%rax), %eax
	.loc 1 1783 36 discriminator 3
	movzwl	%ax, %eax
	movl	%ecx, %esi
	movl	%eax, %edi
	call	stbi__compute_y_16
	.loc 1 1783 35 discriminator 3
	movq	-24(%rbp), %rdx
	movw	%ax, (%rdx)
	.loc 1 1783 10 discriminator 3
	subl	$1, -4(%rbp)
	addq	$8, -16(%rbp)
	addq	$2, -24(%rbp)
.L298:
	.loc 1 1783 10 is_stmt 0 discriminator 1
	cmpl	$0, -4(%rbp)
	jns	.L299
	.loc 1 1783 10
	jmp	.L281
.L268:
	.loc 1 1784 10 is_stmt 1
	movl	-52(%rbp), %eax
	subl	$1, %eax
	movl	%eax, -4(%rbp)
	jmp	.L300
.L301:
	.loc 1 1784 72 discriminator 3
	movq	-16(%rbp), %rax
	addq	$4, %rax
	movzwl	(%rax), %eax
	.loc 1 1784 36 discriminator 3
	movzwl	%ax, %edx
	.loc 1 1784 65 discriminator 3
	movq	-16(%rbp), %rax
	addq	$2, %rax
	movzwl	(%rax), %eax
	.loc 1 1784 36 discriminator 3
	movzwl	%ax, %ecx
	.loc 1 1784 58 discriminator 3
	movq	-16(%rbp), %rax
	movzwl	(%rax), %eax
	.loc 1 1784 36 discriminator 3
	movzwl	%ax, %eax
	movl	%ecx, %esi
	movl	%eax, %edi
	call	stbi__compute_y_16
	.loc 1 1784 35 discriminator 3
	movq	-24(%rbp), %rdx
	movw	%ax, (%rdx)
	.loc 1 1784 82 discriminator 3
	movq	-24(%rbp), %rax
	leaq	2(%rax), %rdx
	.loc 1 1784 86 discriminator 3
	movq	-16(%rbp), %rax
	movzwl	6(%rax), %eax
	movw	%ax, (%rdx)
	.loc 1 1784 10 discriminator 3
	subl	$1, -4(%rbp)
	addq	$8, -16(%rbp)
	addq	$4, -24(%rbp)
.L300:
	.loc 1 1784 10 is_stmt 0 discriminator 1
	cmpl	$0, -4(%rbp)
	jns	.L301
	.loc 1 1784 10
	jmp	.L281
.L266:
	.loc 1 1785 10 is_stmt 1
	movl	-52(%rbp), %eax
	subl	$1, %eax
	movl	%eax, -4(%rbp)
	jmp	.L302
.L303:
	.loc 1 1785 39 discriminator 3
	movq	-16(%rbp), %rax
	movzwl	(%rax), %edx
	.loc 1 1785 35 discriminator 3
	movq	-24(%rbp), %rax
	movw	%dx, (%rax)
	.loc 1 1785 47 discriminator 3
	movq	-24(%rbp), %rax
	leaq	2(%rax), %rdx
	.loc 1 1785 50 discriminator 3
	movq	-16(%rbp), %rax
	movzwl	2(%rax), %eax
	movw	%ax, (%rdx)
	.loc 1 1785 62 discriminator 3
	movq	-24(%rbp), %rax
	leaq	4(%rax), %rdx
	.loc 1 1785 65 discriminator 3
	movq	-16(%rbp), %rax
	movzwl	4(%rax), %eax
	movw	%ax, (%rdx)
	.loc 1 1785 10 discriminator 3
	subl	$1, -4(%rbp)
	addq	$8, -16(%rbp)
	addq	$6, -24(%rbp)
.L302:
	.loc 1 1785 10 is_stmt 0 discriminator 1
	cmpl	$0, -4(%rbp)
	jns	.L303
	.loc 1 1785 10
	jmp	.L281
.L305:
	.loc 1 1786 19 is_stmt 1 discriminator 1
	leaq	__PRETTY_FUNCTION__.18(%rip), %rcx
	movl	$1786, %edx
	leaq	.LC2(%rip), %rsi
	leaq	.LC8(%rip), %rdi
	call	__assert_fail@PLT
.L281:
.LBE762:
	.loc 1 1765 27 discriminator 2
	addl	$1, -8(%rbp)
.L264:
	.loc 1 1765 18 discriminator 1
	movl	-56(%rbp), %eax
	.loc 1 1765 4 discriminator 1
	cmpl	%eax, -8(%rbp)
	jl	.L304
	.loc 1 1791 4
	movq	-40(%rbp), %rax
	movq	%rax, %rdi
	call	free@PLT
	.loc 1 1792 11
	movq	-32(%rbp), %rax
.L260:
	.loc 1 1793 1
	leave
	.cfi_def_cfa 7, 8
	ret
	.cfi_endproc
.LFE570:
	.size	stbi__convert_format16, .-stbi__convert_format16
	.type	stbi__ldr_to_hdr, @function
stbi__ldr_to_hdr:
.LFB571:
	.loc 1 1798 1
	.cfi_startproc
	pushq	%rbp
	.cfi_def_cfa_offset 16
	.cfi_offset 6, -16
	movq	%rsp, %rbp
	.cfi_def_cfa_register 6
	subq	$64, %rsp
	movq	%rdi, -40(%rbp)
	movl	%esi, -44(%rbp)
	movl	%edx, -48(%rbp)
	movl	%ecx, -52(%rbp)
	.loc 1 1801 7
	cmpq	$0, -40(%rbp)
	jne	.L308
	.loc 1 1801 22 discriminator 1
	movl	$0, %eax
	jmp	.L309
.L308:
	.loc 1 1802 23
	movl	-52(%rbp), %edx
	movl	-48(%rbp), %esi
	movl	-44(%rbp), %eax
	movl	$0, %r8d
	movl	$4, %ecx
	movl	%eax, %edi
	call	stbi__malloc_mad4
	movq	%rax, -24(%rbp)
	.loc 1 1803 7
	cmpq	$0, -24(%rbp)
	jne	.L310
	.loc 1 1803 26 discriminator 1
	movq	-40(%rbp), %rax
	movq	%rax, %rdi
	call	free@PLT
	.loc 1 1803 50 discriminator 1
	leaq	.LC1(%rip), %rdi
	call	stbi__err
	movl	$0, %eax
	jmp	.L309
.L310:
	.loc 1 1805 13
	movl	-52(%rbp), %eax
	andl	$1, %eax
	.loc 1 1805 7
	testl	%eax, %eax
	je	.L311
	.loc 1 1805 20 discriminator 1
	movl	-52(%rbp), %eax
	movl	%eax, -12(%rbp)
	jmp	.L312
.L311:
	.loc 1 1805 35 discriminator 2
	movl	-52(%rbp), %eax
	subl	$1, %eax
	movl	%eax, -12(%rbp)
.L312:
	.loc 1 1806 10
	movl	$0, -4(%rbp)
	.loc 1 1806 4
	jmp	.L313
.L316:
	.loc 1 1807 13
	movl	$0, -8(%rbp)
	.loc 1 1807 7
	jmp	.L314
.L315:
	.loc 1 1808 40 discriminator 3
	movss	stbi__l2h_gamma(%rip), %xmm0
	pxor	%xmm2, %xmm2
	cvtss2sd	%xmm0, %xmm2
	.loc 1 1808 50 discriminator 3
	movl	-4(%rbp), %eax
	imull	-52(%rbp), %eax
	movl	%eax, %edx
	.loc 1 1808 55 discriminator 3
	movl	-8(%rbp), %eax
	addl	%edx, %eax
	movslq	%eax, %rdx
	.loc 1 1808 48 discriminator 3
	movq	-40(%rbp), %rax
	addq	%rdx, %rax
	movzbl	(%rax), %eax
	movzbl	%al, %eax
	.loc 1 1808 58 discriminator 3
	pxor	%xmm0, %xmm0
	cvtsi2ssl	%eax, %xmm0
	movss	.LC9(%rip), %xmm1
	divss	%xmm1, %xmm0
	.loc 1 1808 40 discriminator 3
	pxor	%xmm3, %xmm3
	cvtss2sd	%xmm0, %xmm3
	movq	%xmm3, %rax
	movapd	%xmm2, %xmm1
	movq	%rax, %xmm0
	call	pow@PLT
	.loc 1 1808 84 discriminator 3
	movss	stbi__l2h_scale(%rip), %xmm1
	cvtss2sd	%xmm1, %xmm1
	mulsd	%xmm1, %xmm0
	.loc 1 1808 18 discriminator 3
	movl	-4(%rbp), %eax
	imull	-52(%rbp), %eax
	movl	%eax, %edx
	.loc 1 1808 24 discriminator 3
	movl	-8(%rbp), %eax
	addl	%edx, %eax
	cltq
	.loc 1 1808 16 discriminator 3
	leaq	0(,%rax,4), %rdx
	movq	-24(%rbp), %rax
	addq	%rdx, %rax
	.loc 1 1808 31 discriminator 3
	cvtsd2ss	%xmm0, %xmm0
	.loc 1 1808 29 discriminator 3
	movss	%xmm0, (%rax)
	.loc 1 1807 24 discriminator 3
	addl	$1, -8(%rbp)
.L314:
	.loc 1 1807 7 discriminator 1
	movl	-8(%rbp), %eax
	cmpl	-12(%rbp), %eax
	jl	.L315
	.loc 1 1806 23 discriminator 2
	addl	$1, -4(%rbp)
.L313:
	.loc 1 1806 19 discriminator 1
	movl	-44(%rbp), %eax
	imull	-48(%rbp), %eax
	.loc 1 1806 4 discriminator 1
	cmpl	%eax, -4(%rbp)
	jl	.L316
	.loc 1 1811 7
	movl	-12(%rbp), %eax
	cmpl	-52(%rbp), %eax
	jge	.L317
	.loc 1 1812 13
	movl	$0, -4(%rbp)
	.loc 1 1812 7
	jmp	.L318
.L319:
	.loc 1 1813 37 discriminator 3
	movl	-4(%rbp), %eax
	imull	-52(%rbp), %eax
	movl	%eax, %edx
	.loc 1 1813 43 discriminator 3
	movl	-12(%rbp), %eax
	addl	%edx, %eax
	movslq	%eax, %rdx
	.loc 1 1813 35 discriminator 3
	movq	-40(%rbp), %rax
	addq	%rdx, %rax
	movzbl	(%rax), %eax
	movzbl	%al, %eax
	.loc 1 1813 47 discriminator 3
	pxor	%xmm0, %xmm0
	cvtsi2ssl	%eax, %xmm0
	.loc 1 1813 18 discriminator 3
	movl	-4(%rbp), %eax
	imull	-52(%rbp), %eax
	movl	%eax, %edx
	.loc 1 1813 24 discriminator 3
	movl	-12(%rbp), %eax
	addl	%edx, %eax
	cltq
	.loc 1 1813 16 discriminator 3
	leaq	0(,%rax,4), %rdx
	movq	-24(%rbp), %rax
	addq	%rdx, %rax
	.loc 1 1813 47 discriminator 3
	movss	.LC9(%rip), %xmm1
	divss	%xmm1, %xmm0
	.loc 1 1813 29 discriminator 3
	movss	%xmm0, (%rax)
	.loc 1 1812 26 discriminator 3
	addl	$1, -4(%rbp)
.L318:
	.loc 1 1812 22 discriminator 1
	movl	-44(%rbp), %eax
	imull	-48(%rbp), %eax
	.loc 1 1812 7 discriminator 1
	cmpl	%eax, -4(%rbp)
	jl	.L319
.L317:
	.loc 1 1816 4
	movq	-40(%rbp), %rax
	movq	%rax, %rdi
	call	free@PLT
	.loc 1 1817 11
	movq	-24(%rbp), %rax
.L309:
	.loc 1 1818 1
	leave
	.cfi_def_cfa 7, 8
	ret
	.cfi_endproc
.LFE571:
	.size	stbi__ldr_to_hdr, .-stbi__ldr_to_hdr
	.type	stbi__hdr_to_ldr, @function
stbi__hdr_to_ldr:
.LFB572:
	.loc 1 1824 1
	.cfi_startproc
	pushq	%rbp
	.cfi_def_cfa_offset 16
	.cfi_offset 6, -16
	movq	%rsp, %rbp
	.cfi_def_cfa_register 6
	subq	$64, %rsp
	movq	%rdi, -40(%rbp)
	movl	%esi, -44(%rbp)
	movl	%edx, -48(%rbp)
	movl	%ecx, -52(%rbp)
	.loc 1 1827 7
	cmpq	$0, -40(%rbp)
	jne	.L321
	.loc 1 1827 22 discriminator 1
	movl	$0, %eax
	jmp	.L322
.L321:
	.loc 1 1828 25
	movl	-52(%rbp), %edx
	movl	-48(%rbp), %esi
	movl	-44(%rbp), %eax
	movl	$0, %ecx
	movl	%eax, %edi
	call	stbi__malloc_mad3
	movq	%rax, -32(%rbp)
	.loc 1 1829 7
	cmpq	$0, -32(%rbp)
	jne	.L323
	.loc 1 1829 26 discriminator 1
	movq	-40(%rbp), %rax
	movq	%rax, %rdi
	call	free@PLT
	.loc 1 1829 50 discriminator 1
	leaq	.LC1(%rip), %rdi
	call	stbi__err
	movl	$0, %eax
	jmp	.L322
.L323:
	.loc 1 1831 13
	movl	-52(%rbp), %eax
	andl	$1, %eax
	.loc 1 1831 7
	testl	%eax, %eax
	je	.L324
	.loc 1 1831 20 discriminator 1
	movl	-52(%rbp), %eax
	movl	%eax, -12(%rbp)
	jmp	.L325
.L324:
	.loc 1 1831 35 discriminator 2
	movl	-52(%rbp), %eax
	subl	$1, %eax
	movl	%eax, -12(%rbp)
.L325:
	.loc 1 1832 10
	movl	$0, -4(%rbp)
	.loc 1 1832 4
	jmp	.L326
.L338:
	.loc 1 1833 13
	movl	$0, -8(%rbp)
	.loc 1 1833 7
	jmp	.L327
.L332:
.LBB763:
	.loc 1 1834 28
	movss	stbi__h2l_gamma_i(%rip), %xmm0
	pxor	%xmm2, %xmm2
	cvtss2sd	%xmm0, %xmm2
	.loc 1 1834 38
	movl	-4(%rbp), %eax
	imull	-52(%rbp), %eax
	movl	%eax, %edx
	.loc 1 1834 43
	movl	-8(%rbp), %eax
	addl	%edx, %eax
	cltq
	.loc 1 1834 36
	leaq	0(,%rax,4), %rdx
	movq	-40(%rbp), %rax
	addq	%rdx, %rax
	movss	(%rax), %xmm1
	.loc 1 1834 46
	movss	stbi__h2l_scale_i(%rip), %xmm0
	mulss	%xmm1, %xmm0
	.loc 1 1834 28
	pxor	%xmm3, %xmm3
	cvtss2sd	%xmm0, %xmm3
	movq	%xmm3, %rax
	movapd	%xmm2, %xmm1
	movq	%rax, %xmm0
	call	pow@PLT
	.loc 1 1834 20
	pxor	%xmm1, %xmm1
	cvtsd2ss	%xmm0, %xmm1
	.loc 1 1834 85
	movss	.LC9(%rip), %xmm0
	mulss	%xmm0, %xmm1
	.loc 1 1834 16
	movss	.LC10(%rip), %xmm0
	addss	%xmm1, %xmm0
	movss	%xmm0, -16(%rbp)
	.loc 1 1835 13
	pxor	%xmm0, %xmm0
	comiss	-16(%rbp), %xmm0
	jbe	.L328
	.loc 1 1835 23 discriminator 1
	pxor	%xmm0, %xmm0
	movss	%xmm0, -16(%rbp)
.L328:
	.loc 1 1836 13
	movss	-16(%rbp), %xmm0
	comiss	.LC9(%rip), %xmm0
	jbe	.L330
	.loc 1 1836 25 discriminator 1
	movss	.LC9(%rip), %xmm0
	movss	%xmm0, -16(%rbp)
.L330:
	.loc 1 1837 41 discriminator 2
	movss	-16(%rbp), %xmm0
	cvttss2sil	%xmm0, %edx
	.loc 1 1837 18 discriminator 2
	movl	-4(%rbp), %eax
	imull	-52(%rbp), %eax
	movl	%eax, %ecx
	.loc 1 1837 24 discriminator 2
	movl	-8(%rbp), %eax
	addl	%ecx, %eax
	movslq	%eax, %rcx
	.loc 1 1837 16 discriminator 2
	movq	-32(%rbp), %rax
	addq	%rcx, %rax
	.loc 1 1837 29 discriminator 2
	movb	%dl, (%rax)
.LBE763:
	.loc 1 1833 24 discriminator 2
	addl	$1, -8(%rbp)
.L327:
	.loc 1 1833 7 discriminator 1
	movl	-8(%rbp), %eax
	cmpl	-12(%rbp), %eax
	jl	.L332
	.loc 1 1839 10
	movl	-8(%rbp), %eax
	cmpl	-52(%rbp), %eax
	jge	.L333
.LBB764:
	.loc 1 1840 26
	movl	-4(%rbp), %eax
	imull	-52(%rbp), %eax
	movl	%eax, %edx
	.loc 1 1840 31
	movl	-8(%rbp), %eax
	addl	%edx, %eax
	cltq
	.loc 1 1840 24
	leaq	0(,%rax,4), %rdx
	movq	-40(%rbp), %rax
	addq	%rdx, %rax
	movss	(%rax), %xmm1
	.loc 1 1840 35
	movss	.LC9(%rip), %xmm0
	mulss	%xmm0, %xmm1
	.loc 1 1840 16
	movss	.LC10(%rip), %xmm0
	addss	%xmm1, %xmm0
	movss	%xmm0, -20(%rbp)
	.loc 1 1841 13
	pxor	%xmm0, %xmm0
	comiss	-20(%rbp), %xmm0
	jbe	.L334
	.loc 1 1841 23 discriminator 1
	pxor	%xmm0, %xmm0
	movss	%xmm0, -20(%rbp)
.L334:
	.loc 1 1842 13
	movss	-20(%rbp), %xmm0
	comiss	.LC9(%rip), %xmm0
	jbe	.L336
	.loc 1 1842 25 discriminator 1
	movss	.LC9(%rip), %xmm0
	movss	%xmm0, -20(%rbp)
.L336:
	.loc 1 1843 41
	movss	-20(%rbp), %xmm0
	cvttss2sil	%xmm0, %edx
	.loc 1 1843 18
	movl	-4(%rbp), %eax
	imull	-52(%rbp), %eax
	movl	%eax, %ecx
	.loc 1 1843 24
	movl	-8(%rbp), %eax
	addl	%ecx, %eax
	movslq	%eax, %rcx
	.loc 1 1843 16
	movq	-32(%rbp), %rax
	addq	%rcx, %rax
	.loc 1 1843 29
	movb	%dl, (%rax)
.L333:
.LBE764:
	.loc 1 1832 23 discriminator 2
	addl	$1, -4(%rbp)
.L326:
	.loc 1 1832 19 discriminator 1
	movl	-44(%rbp), %eax
	imull	-48(%rbp), %eax
	.loc 1 1832 4 discriminator 1
	cmpl	%eax, -4(%rbp)
	jl	.L338
	.loc 1 1846 4
	movq	-40(%rbp), %rax
	movq	%rax, %rdi
	call	free@PLT
	.loc 1 1847 11
	movq	-32(%rbp), %rax
.L322:
	.loc 1 1848 1
	leave
	.cfi_def_cfa 7, 8
	ret
	.cfi_endproc
.LFE572:
	.size	stbi__hdr_to_ldr, .-stbi__hdr_to_ldr
	.section	.rodata
.LC12:
	.string	"bad code lengths"
	.text
	.type	stbi__build_huffman, @function
stbi__build_huffman:
.LFB573:
	.loc 1 1943 1
	.cfi_startproc
	pushq	%rbp
	.cfi_def_cfa_offset 16
	.cfi_offset 6, -16
	movq	%rsp, %rbp
	.cfi_def_cfa_register 6
	subq	$48, %rsp
	movq	%rdi, -40(%rbp)
	movq	%rsi, -48(%rbp)
	.loc 1 1944 12
	movl	$0, -12(%rbp)
	.loc 1 1947 10
	movl	$0, -4(%rbp)
	.loc 1 1947 4
	jmp	.L344
.L347:
	.loc 1 1948 13
	movl	$0, -8(%rbp)
	.loc 1 1948 7
	jmp	.L345
.L346:
	.loc 1 1949 25 discriminator 3
	movl	-4(%rbp), %eax
	movl	%eax, %ecx
	.loc 1 1949 19 discriminator 3
	movl	-12(%rbp), %eax
	leal	1(%rax), %edx
	movl	%edx, -12(%rbp)
	.loc 1 1949 25 discriminator 3
	addl	$1, %ecx
	.loc 1 1949 23 discriminator 3
	movq	-40(%rbp), %rdx
	cltq
	movb	%cl, 1280(%rdx,%rax)
	.loc 1 1948 31 discriminator 3
	addl	$1, -8(%rbp)
.L345:
	.loc 1 1948 26 discriminator 1
	movl	-4(%rbp), %eax
	cltq
	leaq	0(,%rax,4), %rdx
	movq	-48(%rbp), %rax
	addq	%rdx, %rax
	movl	(%rax), %eax
	.loc 1 1948 7 discriminator 1
	cmpl	%eax, -8(%rbp)
	jl	.L346
	.loc 1 1947 22 discriminator 2
	addl	$1, -4(%rbp)
.L344:
	.loc 1 1947 4 discriminator 1
	cmpl	$15, -4(%rbp)
	jle	.L347
	.loc 1 1950 15
	movq	-40(%rbp), %rdx
	movl	-12(%rbp), %eax
	cltq
	movb	$0, 1280(%rdx,%rax)
	.loc 1 1953 9
	movl	$0, -16(%rbp)
	.loc 1 1954 6
	movl	$0, -12(%rbp)
	.loc 1 1955 9
	movl	$1, -8(%rbp)
	.loc 1 1955 4
	jmp	.L348
.L353:
	.loc 1 1957 23
	movl	-12(%rbp), %eax
	subl	-16(%rbp), %eax
	movl	%eax, %ecx
	.loc 1 1957 19
	movq	-40(%rbp), %rax
	movl	-8(%rbp), %edx
	movslq	%edx, %rdx
	addq	$400, %rdx
	movl	%ecx, 12(%rax,%rdx,4)
	.loc 1 1958 18
	movq	-40(%rbp), %rdx
	movl	-12(%rbp), %eax
	cltq
	movzbl	1280(%rdx,%rax), %eax
	movzbl	%al, %eax
	.loc 1 1958 10
	cmpl	%eax, -8(%rbp)
	jne	.L349
	.loc 1 1959 16
	jmp	.L350
.L351:
	.loc 1 1960 48
	movl	-16(%rbp), %edx
	leal	1(%rdx), %eax
	movl	%eax, -16(%rbp)
	.loc 1 1960 22
	movl	-12(%rbp), %eax
	leal	1(%rax), %ecx
	movl	%ecx, -12(%rbp)
	.loc 1 1960 28
	movl	%edx, %ecx
	.loc 1 1960 26
	movq	-40(%rbp), %rdx
	cltq
	addq	$256, %rax
	movw	%cx, (%rdx,%rax,2)
.L350:
	.loc 1 1959 24
	movq	-40(%rbp), %rdx
	movl	-12(%rbp), %eax
	cltq
	movzbl	1280(%rdx,%rax), %eax
	movzbl	%al, %eax
	.loc 1 1959 16
	cmpl	%eax, -8(%rbp)
	je	.L351
	.loc 1 1961 18
	movl	-16(%rbp), %eax
	leal	-1(%rax), %edx
	.loc 1 1961 21
	movl	-8(%rbp), %eax
	movl	%eax, %ecx
	shrl	%cl, %edx
	movl	%edx, %eax
	.loc 1 1961 13
	testl	%eax, %eax
	je	.L349
	.loc 1 1961 42 discriminator 1
	leaq	.LC12(%rip), %rdi
	call	stbi__err
	jmp	.L352
.L349:
	.loc 1 1964 34 discriminator 2
	movl	$16, %eax
	subl	-8(%rbp), %eax
	.loc 1 1964 28 discriminator 2
	movl	-16(%rbp), %edx
	movl	%eax, %ecx
	sall	%cl, %edx
	movl	%edx, %ecx
	.loc 1 1964 21 discriminator 2
	movq	-40(%rbp), %rax
	movl	-8(%rbp), %edx
	movslq	%edx, %rdx
	addq	$384, %rdx
	movl	%ecx, 4(%rax,%rdx,4)
	.loc 1 1965 12 discriminator 2
	sall	-16(%rbp)
	.loc 1 1955 22 discriminator 2
	addl	$1, -8(%rbp)
.L348:
	.loc 1 1955 4 discriminator 1
	cmpl	$16, -8(%rbp)
	jle	.L353
	.loc 1 1967 18
	movq	-40(%rbp), %rax
	movl	-8(%rbp), %edx
	movslq	%edx, %rdx
	addq	$384, %rdx
	movl	$-1, 4(%rax,%rdx,4)
	.loc 1 1970 12
	movq	-40(%rbp), %rax
	.loc 1 1970 4
	movl	$512, %edx
	movl	$255, %esi
	movq	%rax, %rdi
	call	memset@PLT
	.loc 1 1971 10
	movl	$0, -4(%rbp)
	.loc 1 1971 4
	jmp	.L354
.L358:
.LBB765:
	.loc 1 1972 22
	movq	-40(%rbp), %rdx
	movl	-4(%rbp), %eax
	cltq
	movzbl	1280(%rdx,%rax), %eax
	.loc 1 1972 11
	movzbl	%al, %eax
	movl	%eax, -20(%rbp)
	.loc 1 1973 10
	cmpl	$9, -20(%rbp)
	jg	.L355
.LBB766:
	.loc 1 1974 25
	movq	-40(%rbp), %rax
	movl	-4(%rbp), %edx
	movslq	%edx, %rdx
	addq	$256, %rdx
	movzwl	(%rax,%rdx,2), %eax
	movzwl	%ax, %edx
	.loc 1 1974 42
	movl	$9, %eax
	subl	-20(%rbp), %eax
	.loc 1 1974 14
	movl	%eax, %ecx
	sall	%cl, %edx
	movl	%edx, %eax
	movl	%eax, -24(%rbp)
	.loc 1 1975 33
	movl	$9, %eax
	subl	-20(%rbp), %eax
	.loc 1 1975 14
	movl	$1, %edx
	movl	%eax, %ecx
	sall	%cl, %edx
	movl	%edx, %eax
	movl	%eax, -28(%rbp)
	.loc 1 1976 16
	movl	$0, -8(%rbp)
	.loc 1 1976 10
	jmp	.L356
.L357:
	.loc 1 1977 22 discriminator 3
	movl	-24(%rbp), %edx
	movl	-8(%rbp), %eax
	addl	%edx, %eax
	.loc 1 1977 28 discriminator 3
	movl	-4(%rbp), %edx
	movl	%edx, %ecx
	.loc 1 1977 26 discriminator 3
	movq	-40(%rbp), %rdx
	cltq
	movb	%cl, (%rdx,%rax)
	.loc 1 1976 27 discriminator 3
	addl	$1, -8(%rbp)
.L356:
	.loc 1 1976 10 discriminator 1
	movl	-8(%rbp), %eax
	cmpl	-28(%rbp), %eax
	jl	.L357
.L355:
.LBE766:
.LBE765:
	.loc 1 1971 21 discriminator 2
	addl	$1, -4(%rbp)
.L354:
	.loc 1 1971 4 discriminator 1
	movl	-4(%rbp), %eax
	cmpl	-12(%rbp), %eax
	jl	.L358
	.loc 1 1981 11
	movl	$1, %eax
.L352:
	.loc 1 1982 1
	leave
	.cfi_def_cfa 7, 8
	ret
	.cfi_endproc
.LFE573:
	.size	stbi__build_huffman, .-stbi__build_huffman
	.type	stbi__build_fast_ac, @function
stbi__build_fast_ac:
.LFB574:
	.loc 1 1987 1
	.cfi_startproc
	pushq	%rbp
	.cfi_def_cfa_offset 16
	.cfi_offset 6, -16
	movq	%rsp, %rbp
	.cfi_def_cfa_register 6
	movq	%rdi, -40(%rbp)
	movq	%rsi, -48(%rbp)
	.loc 1 1989 10
	movl	$0, -4(%rbp)
	.loc 1 1989 4
	jmp	.L360
.L363:
.LBB767:
	.loc 1 1990 15
	movq	-48(%rbp), %rdx
	movl	-4(%rbp), %eax
	cltq
	movzbl	(%rdx,%rax), %eax
	movb	%al, -9(%rbp)
	.loc 1 1991 14
	movl	-4(%rbp), %eax
	cltq
	leaq	(%rax,%rax), %rdx
	movq	-40(%rbp), %rax
	addq	%rdx, %rax
	.loc 1 1991 18
	movw	$0, (%rax)
	.loc 1 1992 10
	cmpb	$-1, -9(%rbp)
	je	.L361
.LBB768:
	.loc 1 1993 28
	movzbl	-9(%rbp), %eax
	movq	-48(%rbp), %rdx
	cltq
	movzbl	1024(%rdx,%rax), %eax
	.loc 1 1993 14
	movzbl	%al, %eax
	movl	%eax, -16(%rbp)
	.loc 1 1994 24
	movl	-16(%rbp), %eax
	sarl	$4, %eax
	.loc 1 1994 14
	andl	$15, %eax
	movl	%eax, -20(%rbp)
	.loc 1 1995 14
	movl	-16(%rbp), %eax
	andl	$15, %eax
	movl	%eax, -24(%rbp)
	.loc 1 1996 27
	movzbl	-9(%rbp), %eax
	movq	-48(%rbp), %rdx
	cltq
	movzbl	1280(%rdx,%rax), %eax
	.loc 1 1996 14
	movzbl	%al, %eax
	movl	%eax, -28(%rbp)
	.loc 1 1998 13
	cmpl	$0, -24(%rbp)
	je	.L361
	.loc 1 1998 29 discriminator 1
	movl	-28(%rbp), %edx
	movl	-24(%rbp), %eax
	addl	%edx, %eax
	.loc 1 1998 22 discriminator 1
	cmpl	$9, %eax
	jg	.L361
.LBB769:
	.loc 1 2000 25
	movl	-28(%rbp), %eax
	movl	-4(%rbp), %edx
	movl	%eax, %ecx
	sall	%cl, %edx
	movl	%edx, %eax
	.loc 1 2000 33
	andl	$511, %eax
	movl	%eax, %edx
	.loc 1 2000 73
	movl	$9, %eax
	subl	-24(%rbp), %eax
	.loc 1 2000 17
	movl	%eax, %ecx
	sarl	%cl, %edx
	movl	%edx, %eax
	movl	%eax, -8(%rbp)
	.loc 1 2001 35
	movl	-24(%rbp), %eax
	subl	$1, %eax
	.loc 1 2001 17
	movl	$1, %edx
	movl	%eax, %ecx
	sall	%cl, %edx
	movl	%edx, %eax
	movl	%eax, -32(%rbp)
	.loc 1 2002 16
	movl	-8(%rbp), %eax
	cmpl	-32(%rbp), %eax
	jge	.L362
	.loc 1 2002 34 discriminator 1
	movl	-24(%rbp), %eax
	movl	$-1, %edx
	movl	%eax, %ecx
	sall	%cl, %edx
	.loc 1 2002 26 discriminator 1
	movl	-8(%rbp), %eax
	addl	%edx, %eax
	addl	$1, %eax
	movl	%eax, -8(%rbp)
.L362:
	.loc 1 2004 16
	cmpl	$-128, -8(%rbp)
	jl	.L361
	.loc 1 2004 27 discriminator 1
	cmpl	$127, -8(%rbp)
	jg	.L361
	.loc 1 2005 54
	movl	-8(%rbp), %eax
	sall	$4, %eax
	movl	%eax, %edx
	movl	-20(%rbp), %eax
	addl	%edx, %eax
	sall	$4, %eax
	movl	%eax, %edx
	.loc 1 2005 74
	movl	-28(%rbp), %eax
	movl	%eax, %ecx
	movl	-24(%rbp), %eax
	addl	%ecx, %eax
	.loc 1 2005 67
	addl	%eax, %edx
	.loc 1 2005 23
	movl	-4(%rbp), %eax
	cltq
	leaq	(%rax,%rax), %rcx
	movq	-40(%rbp), %rax
	addq	%rcx, %rax
	.loc 1 2005 27
	movw	%dx, (%rax)
.L361:
.LBE769:
.LBE768:
.LBE767:
	.loc 1 1989 36 discriminator 2
	addl	$1, -4(%rbp)
.L360:
	.loc 1 1989 4 discriminator 1
	cmpl	$511, -4(%rbp)
	jle	.L363
	.loc 1 2009 1
	nop
	nop
	popq	%rbp
	.cfi_def_cfa 7, 8
	ret
	.cfi_endproc
.LFE574:
	.size	stbi__build_fast_ac, .-stbi__build_fast_ac
	.type	stbi__grow_buffer_unsafe, @function
stbi__grow_buffer_unsafe:
.LFB575:
	.loc 1 2012 1
	.cfi_startproc
	pushq	%rbp
	.cfi_def_cfa_offset 16
	.cfi_offset 6, -16
	movq	%rsp, %rbp
	.cfi_def_cfa_register 6
	subq	$32, %rsp
	movq	%rdi, -24(%rbp)
.L371:
.LBB770:
	.loc 1 2014 25
	movq	-24(%rbp), %rax
	movl	18476(%rax), %eax
	.loc 1 2014 38
	testl	%eax, %eax
	jne	.L365
	.loc 1 2014 40 discriminator 1
	movq	-24(%rbp), %rax
	movq	(%rax), %rax
	movq	%rax, %rdi
	call	stbi__get8
	.loc 1 2014 38 discriminator 1
	movzbl	%al, %eax
	jmp	.L366
.L365:
	.loc 1 2014 38 is_stmt 0 discriminator 2
	movl	$0, %eax
.L366:
	.loc 1 2014 20 is_stmt 1 discriminator 4
	movl	%eax, -8(%rbp)
	.loc 1 2015 10 discriminator 4
	cmpl	$255, -8(%rbp)
	jne	.L367
.LBB771:
	.loc 1 2016 18
	movq	-24(%rbp), %rax
	movq	(%rax), %rax
	movq	%rax, %rdi
	call	stbi__get8
	.loc 1 2016 14
	movzbl	%al, %eax
	movl	%eax, -4(%rbp)
	.loc 1 2017 16
	jmp	.L368
.L369:
	.loc 1 2017 32 discriminator 2
	movq	-24(%rbp), %rax
	movq	(%rax), %rax
	movq	%rax, %rdi
	call	stbi__get8
	.loc 1 2017 30 discriminator 2
	movzbl	%al, %eax
	movl	%eax, -4(%rbp)
.L368:
	.loc 1 2017 16 discriminator 1
	cmpl	$255, -4(%rbp)
	je	.L369
	.loc 1 2018 13
	cmpl	$0, -4(%rbp)
	je	.L367
	.loc 1 2019 25
	movl	-4(%rbp), %eax
	movl	%eax, %edx
	.loc 1 2019 23
	movq	-24(%rbp), %rax
	movb	%dl, 18472(%rax)
	.loc 1 2020 23
	movq	-24(%rbp), %rax
	movl	$1, 18476(%rax)
	.loc 1 2021 13
	jmp	.L364
.L367:
.LBE771:
	.loc 1 2024 22
	movq	-24(%rbp), %rax
	movl	18464(%rax), %esi
	.loc 1 2024 37
	movq	-24(%rbp), %rax
	movl	18468(%rax), %edx
	.loc 1 2024 34
	movl	$24, %eax
	subl	%edx, %eax
	.loc 1 2024 27
	movl	-8(%rbp), %edx
	movl	%eax, %ecx
	sall	%cl, %edx
	movl	%edx, %eax
	.loc 1 2024 22
	orl	%eax, %esi
	movl	%esi, %edx
	movq	-24(%rbp), %rax
	movl	%edx, 18464(%rax)
	.loc 1 2025 20
	movq	-24(%rbp), %rax
	movl	18468(%rax), %eax
	leal	8(%rax), %edx
	movq	-24(%rbp), %rax
	movl	%edx, 18468(%rax)
.LBE770:
	.loc 1 2026 14
	movq	-24(%rbp), %rax
	movl	18468(%rax), %eax
	.loc 1 2026 4
	cmpl	$24, %eax
	jle	.L371
.L364:
	.loc 1 2027 1
	leave
	.cfi_def_cfa 7, 8
	ret
	.cfi_endproc
.LFE575:
	.size	stbi__grow_buffer_unsafe, .-stbi__grow_buffer_unsafe
	.section	.rodata
	.align 32
	.type	stbi__bmask, @object
	.size	stbi__bmask, 68
stbi__bmask:
	.long	0
	.long	1
	.long	3
	.long	7
	.long	15
	.long	31
	.long	63
	.long	127
	.long	255
	.long	511
	.long	1023
	.long	2047
	.long	4095
	.long	8191
	.long	16383
	.long	32767
	.long	65535
	.align 8
.LC13:
	.string	"(((j->code_buffer) >> (32 - h->size[c])) & stbi__bmask[h->size[c]]) == h->code[c]"
	.text
	.type	stbi__jpeg_huff_decode, @function
stbi__jpeg_huff_decode:
.LFB576:
	.loc 1 2034 1
	.cfi_startproc
	pushq	%rbp
	.cfi_def_cfa_offset 16
	.cfi_offset 6, -16
	movq	%rsp, %rbp
	.cfi_def_cfa_register 6
	subq	$32, %rsp
	movq	%rdi, -24(%rbp)
	movq	%rsi, -32(%rbp)
	.loc 1 2038 9
	movq	-24(%rbp), %rax
	movl	18468(%rax), %eax
	.loc 1 2038 7
	cmpl	$15, %eax
	jg	.L373
	.loc 1 2038 27 discriminator 1
	movq	-24(%rbp), %rax
	movq	%rax, %rdi
	call	stbi__grow_buffer_unsafe
.L373:
	.loc 1 2042 10
	movq	-24(%rbp), %rax
	movl	18464(%rax), %eax
	.loc 1 2042 45
	shrl	$23, %eax
	.loc 1 2042 6
	movl	%eax, -8(%rbp)
	.loc 1 2043 15
	movq	-32(%rbp), %rdx
	movl	-8(%rbp), %eax
	cltq
	movzbl	(%rdx,%rax), %eax
	.loc 1 2043 6
	movzbl	%al, %eax
	movl	%eax, -4(%rbp)
	.loc 1 2044 7
	cmpl	$254, -4(%rbp)
	jg	.L374
.LBB772:
	.loc 1 2045 22
	movq	-32(%rbp), %rdx
	movl	-4(%rbp), %eax
	cltq
	movzbl	1280(%rdx,%rax), %eax
	.loc 1 2045 11
	movzbl	%al, %eax
	movl	%eax, -16(%rbp)
	.loc 1 2046 16
	movq	-24(%rbp), %rax
	movl	18468(%rax), %eax
	.loc 1 2046 10
	cmpl	%eax, -16(%rbp)
	jle	.L375
	.loc 1 2047 17
	movl	$-1, %eax
	jmp	.L376
.L375:
	.loc 1 2048 22
	movq	-24(%rbp), %rax
	movl	18464(%rax), %edx
	movl	-16(%rbp), %eax
	movl	%eax, %ecx
	sall	%cl, %edx
	movq	-24(%rbp), %rax
	movl	%edx, 18464(%rax)
	.loc 1 2049 20
	movq	-24(%rbp), %rax
	movl	18468(%rax), %eax
	subl	-16(%rbp), %eax
	movl	%eax, %edx
	movq	-24(%rbp), %rax
	movl	%edx, 18468(%rax)
	.loc 1 2050 23
	movq	-32(%rbp), %rdx
	movl	-4(%rbp), %eax
	cltq
	movzbl	1024(%rdx,%rax), %eax
	movzbl	%al, %eax
	jmp	.L376
.L374:
.LBE772:
	.loc 1 2059 12
	movq	-24(%rbp), %rax
	movl	18464(%rax), %eax
	.loc 1 2059 9
	shrl	$16, %eax
	movl	%eax, -12(%rbp)
	.loc 1 2060 10
	movl	$10, -4(%rbp)
.L379:
	.loc 1 2061 28
	movq	-32(%rbp), %rax
	movl	-4(%rbp), %edx
	movslq	%edx, %rdx
	addq	$384, %rdx
	movl	4(%rax,%rdx,4), %eax
	.loc 1 2061 10
	cmpl	%eax, -12(%rbp)
	jb	.L384
	.loc 1 2060 27
	addl	$1, -4(%rbp)
	.loc 1 2061 10
	jmp	.L379
.L384:
	.loc 1 2062 10
	nop
	.loc 1 2063 7
	cmpl	$17, -4(%rbp)
	jne	.L380
	.loc 1 2065 20
	movq	-24(%rbp), %rax
	movl	18468(%rax), %eax
	leal	-16(%rax), %edx
	movq	-24(%rbp), %rax
	movl	%edx, 18468(%rax)
	.loc 1 2066 14
	movl	$-1, %eax
	jmp	.L376
.L380:
	.loc 1 2069 13
	movq	-24(%rbp), %rax
	movl	18468(%rax), %eax
	.loc 1 2069 7
	cmpl	%eax, -4(%rbp)
	jle	.L381
	.loc 1 2070 14
	movl	$-1, %eax
	jmp	.L376
.L381:
	.loc 1 2073 11
	movq	-24(%rbp), %rax
	movl	18464(%rax), %edx
	.loc 1 2073 32
	movl	$32, %eax
	subl	-4(%rbp), %eax
	.loc 1 2073 25
	movl	%eax, %ecx
	shrl	%cl, %edx
	movl	%edx, %ecx
	.loc 1 2073 51
	movl	-4(%rbp), %eax
	cltq
	leaq	0(,%rax,4), %rdx
	leaq	stbi__bmask(%rip), %rax
	movl	(%rdx,%rax), %eax
	.loc 1 2073 38
	andl	%eax, %ecx
	.loc 1 2073 66
	movq	-32(%rbp), %rax
	movl	-4(%rbp), %edx
	movslq	%edx, %rdx
	addq	$400, %rdx
	movl	12(%rax,%rdx,4), %eax
	.loc 1 2073 56
	addl	%ecx, %eax
	.loc 1 2073 6
	movl	%eax, -8(%rbp)
	.loc 1 2074 4
	movq	-24(%rbp), %rax
	movl	18464(%rax), %esi
	movq	-32(%rbp), %rdx
	movl	-8(%rbp), %eax
	cltq
	movzbl	1280(%rdx,%rax), %eax
	movzbl	%al, %edx
	movl	$32, %eax
	subl	%edx, %eax
	movl	%eax, %ecx
	shrl	%cl, %esi
	movl	%esi, %ecx
	movq	-32(%rbp), %rdx
	movl	-8(%rbp), %eax
	cltq
	movzbl	1280(%rdx,%rax), %eax
	movzbl	%al, %eax
	cltq
	leaq	0(,%rax,4), %rdx
	leaq	stbi__bmask(%rip), %rax
	movl	(%rdx,%rax), %eax
	andl	%eax, %ecx
	movq	-32(%rbp), %rax
	movl	-8(%rbp), %edx
	movslq	%edx, %rdx
	addq	$256, %rdx
	movzwl	(%rax,%rdx,2), %eax
	movzwl	%ax, %eax
	cmpl	%eax, %ecx
	je	.L382
	.loc 1 2074 4 is_stmt 0 discriminator 1
	leaq	__PRETTY_FUNCTION__.17(%rip), %rcx
	movl	$2074, %edx
	leaq	.LC2(%rip), %rsi
	leaq	.LC13(%rip), %rdi
	call	__assert_fail@PLT
.L382:
	.loc 1 2077 17 is_stmt 1
	movq	-24(%rbp), %rax
	movl	18468(%rax), %eax
	subl	-4(%rbp), %eax
	movl	%eax, %edx
	movq	-24(%rbp), %rax
	movl	%edx, 18468(%rax)
	.loc 1 2078 19
	movq	-24(%rbp), %rax
	movl	18464(%rax), %edx
	movl	-4(%rbp), %eax
	movl	%eax, %ecx
	sall	%cl, %edx
	movq	-24(%rbp), %rax
	movl	%edx, 18464(%rax)
	.loc 1 2079 20
	movq	-32(%rbp), %rdx
	movl	-8(%rbp), %eax
	cltq
	movzbl	1024(%rdx,%rax), %eax
	movzbl	%al, %eax
.L376:
	.loc 1 2080 1
	leave
	.cfi_def_cfa 7, 8
	ret
	.cfi_endproc
.LFE576:
	.size	stbi__jpeg_huff_decode, .-stbi__jpeg_huff_decode
	.section	.rodata
	.align 32
	.type	stbi__jbias, @object
	.size	stbi__jbias, 64
stbi__jbias:
	.long	0
	.long	-1
	.long	-3
	.long	-7
	.long	-15
	.long	-31
	.long	-63
	.long	-127
	.long	-255
	.long	-511
	.long	-1023
	.long	-2047
	.long	-4095
	.long	-8191
	.long	-16383
	.long	-32767
	.text
	.type	stbi__extend_receive, @function
stbi__extend_receive:
.LFB577:
	.loc 1 2088 1
	.cfi_startproc
	pushq	%rbp
	.cfi_def_cfa_offset 16
	.cfi_offset 6, -16
	movq	%rsp, %rbp
	.cfi_def_cfa_register 6
	subq	$32, %rsp
	movq	%rdi, -24(%rbp)
	movl	%esi, -28(%rbp)
	.loc 1 2091 9
	movq	-24(%rbp), %rax
	movl	18468(%rax), %eax
	.loc 1 2091 7
	cmpl	%eax, -28(%rbp)
	jle	.L386
	.loc 1 2091 26 discriminator 1
	movq	-24(%rbp), %rax
	movq	%rax, %rdi
	call	stbi__grow_buffer_unsafe
.L386:
	.loc 1 2093 24
	movq	-24(%rbp), %rax
	movl	18464(%rax), %eax
	.loc 1 2093 8
	sarl	$31, %eax
	movl	%eax, -4(%rbp)
	.loc 1 2094 8
	movq	-24(%rbp), %rax
	movl	18464(%rax), %edx
	.loc 1 2094 6
	movl	-28(%rbp), %eax
	movl	%eax, %ecx
	roll	%cl, %edx
	movl	%edx, %eax
	movl	%eax, -8(%rbp)
	.loc 1 2095 7
	cmpl	$0, -28(%rbp)
	js	.L387
	.loc 1 2095 14 discriminator 2
	cmpl	$16, -28(%rbp)
	jle	.L388
.L387:
	.loc 1 2095 79 discriminator 3
	movl	$0, %eax
	jmp	.L389
.L388:
	.loc 1 2096 37
	movl	-28(%rbp), %eax
	cltq
	leaq	0(,%rax,4), %rdx
	leaq	stbi__bmask(%rip), %rax
	movl	(%rdx,%rax), %eax
	.loc 1 2096 25
	notl	%eax
	.loc 1 2096 23
	andl	-8(%rbp), %eax
	movl	%eax, %edx
	.loc 1 2096 19
	movq	-24(%rbp), %rax
	movl	%edx, 18464(%rax)
	.loc 1 2097 20
	movl	-28(%rbp), %eax
	cltq
	leaq	0(,%rax,4), %rdx
	leaq	stbi__bmask(%rip), %rax
	movl	(%rdx,%rax), %eax
	.loc 1 2097 6
	andl	%eax, -8(%rbp)
	.loc 1 2098 17
	movq	-24(%rbp), %rax
	movl	18468(%rax), %eax
	subl	-28(%rbp), %eax
	movl	%eax, %edx
	movq	-24(%rbp), %rax
	movl	%edx, 18468(%rax)
	.loc 1 2099 27
	movl	-28(%rbp), %eax
	cltq
	leaq	0(,%rax,4), %rdx
	leaq	stbi__jbias(%rip), %rax
	movl	(%rdx,%rax), %edx
	.loc 1 2099 33
	movl	-4(%rbp), %eax
	notl	%eax
	.loc 1 2099 31
	andl	%edx, %eax
	movl	%eax, %edx
	.loc 1 2099 13
	movl	-8(%rbp), %eax
	addl	%edx, %eax
.L389:
	.loc 1 2100 1
	leave
	.cfi_def_cfa 7, 8
	ret
	.cfi_endproc
.LFE577:
	.size	stbi__extend_receive, .-stbi__extend_receive
	.type	stbi__jpeg_get_bits, @function
stbi__jpeg_get_bits:
.LFB578:
	.loc 1 2104 1
	.cfi_startproc
	pushq	%rbp
	.cfi_def_cfa_offset 16
	.cfi_offset 6, -16
	movq	%rsp, %rbp
	.cfi_def_cfa_register 6
	subq	$32, %rsp
	movq	%rdi, -24(%rbp)
	movl	%esi, -28(%rbp)
	.loc 1 2106 9
	movq	-24(%rbp), %rax
	movl	18468(%rax), %eax
	.loc 1 2106 7
	cmpl	%eax, -28(%rbp)
	jle	.L391
	.loc 1 2106 26 discriminator 1
	movq	-24(%rbp), %rax
	movq	%rax, %rdi
	call	stbi__grow_buffer_unsafe
.L391:
	.loc 1 2107 8
	movq	-24(%rbp), %rax
	movl	18464(%rax), %edx
	.loc 1 2107 6
	movl	-28(%rbp), %eax
	movl	%eax, %ecx
	roll	%cl, %edx
	movl	%edx, %eax
	movl	%eax, -4(%rbp)
	.loc 1 2108 37
	movl	-28(%rbp), %eax
	cltq
	leaq	0(,%rax,4), %rdx
	leaq	stbi__bmask(%rip), %rax
	movl	(%rdx,%rax), %eax
	.loc 1 2108 25
	notl	%eax
	.loc 1 2108 23
	andl	-4(%rbp), %eax
	movl	%eax, %edx
	.loc 1 2108 19
	movq	-24(%rbp), %rax
	movl	%edx, 18464(%rax)
	.loc 1 2109 20
	movl	-28(%rbp), %eax
	cltq
	leaq	0(,%rax,4), %rdx
	leaq	stbi__bmask(%rip), %rax
	movl	(%rdx,%rax), %eax
	.loc 1 2109 6
	andl	%eax, -4(%rbp)
	.loc 1 2110 17
	movq	-24(%rbp), %rax
	movl	18468(%rax), %eax
	subl	-28(%rbp), %eax
	movl	%eax, %edx
	movq	-24(%rbp), %rax
	movl	%edx, 18468(%rax)
	.loc 1 2111 11
	movl	-4(%rbp), %eax
	.loc 1 2112 1
	leave
	.cfi_def_cfa 7, 8
	ret
	.cfi_endproc
.LFE578:
	.size	stbi__jpeg_get_bits, .-stbi__jpeg_get_bits
	.type	stbi__jpeg_get_bit, @function
stbi__jpeg_get_bit:
.LFB579:
	.loc 1 2115 1
	.cfi_startproc
	pushq	%rbp
	.cfi_def_cfa_offset 16
	.cfi_offset 6, -16
	movq	%rsp, %rbp
	.cfi_def_cfa_register 6
	subq	$32, %rsp
	movq	%rdi, -24(%rbp)
	.loc 1 2117 9
	movq	-24(%rbp), %rax
	movl	18468(%rax), %eax
	.loc 1 2117 7
	testl	%eax, %eax
	jg	.L394
	.loc 1 2117 26 discriminator 1
	movq	-24(%rbp), %rax
	movq	%rax, %rdi
	call	stbi__grow_buffer_unsafe
.L394:
	.loc 1 2118 6
	movq	-24(%rbp), %rax
	movl	18464(%rax), %eax
	movl	%eax, -4(%rbp)
	.loc 1 2119 19
	movq	-24(%rbp), %rax
	movl	18464(%rax), %eax
	leal	(%rax,%rax), %edx
	movq	-24(%rbp), %rax
	movl	%edx, 18464(%rax)
	.loc 1 2120 7
	movq	-24(%rbp), %rax
	movl	18468(%rax), %eax
	.loc 1 2120 4
	leal	-1(%rax), %edx
	movq	-24(%rbp), %rax
	movl	%edx, 18468(%rax)
	.loc 1 2121 13
	movl	-4(%rbp), %eax
	andl	$-2147483648, %eax
	.loc 1 2122 1
	leave
	.cfi_def_cfa 7, 8
	ret
	.cfi_endproc
.LFE579:
	.size	stbi__jpeg_get_bit, .-stbi__jpeg_get_bit
	.section	.rodata
	.align 32
	.type	stbi__jpeg_dezigzag, @object
	.size	stbi__jpeg_dezigzag, 79
stbi__jpeg_dezigzag:
	.string	""
	.ascii	"\001\b\020\t\002\003\n\021\030 \031\022\013\004\005\f\023\032"
	.ascii	"!(0)\"\033\024\r\006\007\016\025\034#*1892+$\035\026\017\027"
	.ascii	"\036%,3:;4-&\037'.5<=6/7>????????????????"
.LC14:
	.string	"bad huffman code"
	.text
	.type	stbi__jpeg_decode_block, @function
stbi__jpeg_decode_block:
.LFB580:
	.loc 1 2143 1
	.cfi_startproc
	pushq	%rbp
	.cfi_def_cfa_offset 16
	.cfi_offset 6, -16
	movq	%rsp, %rbp
	.cfi_def_cfa_register 6
	subq	$96, %rsp
	movq	%rdi, -56(%rbp)
	movq	%rsi, -64(%rbp)
	movq	%rdx, -72(%rbp)
	movq	%rcx, -80(%rbp)
	movq	%r8, -88(%rbp)
	movl	%r9d, -92(%rbp)
	.loc 1 2147 9
	movq	-56(%rbp), %rax
	movl	18468(%rax), %eax
	.loc 1 2147 7
	cmpl	$15, %eax
	jg	.L397
	.loc 1 2147 27 discriminator 1
	movq	-56(%rbp), %rax
	movq	%rax, %rdi
	call	stbi__grow_buffer_unsafe
.L397:
	.loc 1 2148 8
	movq	-72(%rbp), %rdx
	movq	-56(%rbp), %rax
	movq	%rdx, %rsi
	movq	%rax, %rdi
	call	stbi__jpeg_huff_decode
	movl	%eax, -8(%rbp)
	.loc 1 2149 7
	cmpl	$0, -8(%rbp)
	jns	.L398
	.loc 1 2149 22 discriminator 1
	leaq	.LC14(%rip), %rdi
	call	stbi__err
	jmp	.L399
.L398:
	.loc 1 2152 4
	movq	-64(%rbp), %rax
	movl	$128, %edx
	movl	$0, %esi
	movq	%rax, %rdi
	call	memset@PLT
	.loc 1 2154 42
	cmpl	$0, -8(%rbp)
	je	.L400
	.loc 1 2154 15 discriminator 1
	movl	-8(%rbp), %edx
	movq	-56(%rbp), %rax
	movl	%edx, %esi
	movq	%rax, %rdi
	call	stbi__extend_receive
	jmp	.L401
.L400:
	.loc 1 2154 42 discriminator 2
	movl	$0, %eax
.L401:
	.loc 1 2154 9 discriminator 4
	movl	%eax, -12(%rbp)
	.loc 1 2155 23 discriminator 4
	movq	-56(%rbp), %rcx
	movl	-92(%rbp), %eax
	movslq	%eax, %rdx
	movq	%rdx, %rax
	addq	%rax, %rax
	addq	%rdx, %rax
	salq	$5, %rax
	addq	%rcx, %rax
	addq	$18104, %rax
	movl	(%rax), %edx
	.loc 1 2155 7 discriminator 4
	movl	-12(%rbp), %eax
	addl	%edx, %eax
	movl	%eax, -16(%rbp)
	.loc 1 2156 27 discriminator 4
	movq	-56(%rbp), %rcx
	movl	-92(%rbp), %eax
	movslq	%eax, %rdx
	movq	%rdx, %rax
	addq	%rax, %rax
	addq	%rdx, %rax
	salq	$5, %rax
	addq	%rcx, %rax
	leaq	18104(%rax), %rdx
	movl	-16(%rbp), %eax
	movl	%eax, (%rdx)
	.loc 1 2157 14 discriminator 4
	movl	-16(%rbp), %eax
	movl	%eax, %edx
	movq	16(%rbp), %rax
	movzwl	(%rax), %eax
	imull	%edx, %eax
	movl	%eax, %edx
	.loc 1 2157 12 discriminator 4
	movq	-64(%rbp), %rax
	movw	%dx, (%rax)
	.loc 1 2160 6 discriminator 4
	movl	$1, -4(%rbp)
.L409:
.LBB773:
	.loc 1 2164 12
	movq	-56(%rbp), %rax
	movl	18468(%rax), %eax
	.loc 1 2164 10
	cmpl	$15, %eax
	jg	.L402
	.loc 1 2164 30 discriminator 1
	movq	-56(%rbp), %rax
	movq	%rax, %rdi
	call	stbi__grow_buffer_unsafe
.L402:
	.loc 1 2165 13
	movq	-56(%rbp), %rax
	movl	18464(%rax), %eax
	.loc 1 2165 48
	shrl	$23, %eax
	.loc 1 2165 9
	movl	%eax, -20(%rbp)
	.loc 1 2166 14
	movl	-20(%rbp), %eax
	cltq
	leaq	(%rax,%rax), %rdx
	movq	-88(%rbp), %rax
	addq	%rdx, %rax
	movzwl	(%rax), %eax
	.loc 1 2166 9
	cwtl
	movl	%eax, -24(%rbp)
	.loc 1 2167 10
	cmpl	$0, -24(%rbp)
	je	.L403
	.loc 1 2168 18
	movl	-24(%rbp), %eax
	sarl	$4, %eax
	.loc 1 2168 24
	andl	$15, %eax
	.loc 1 2168 12
	addl	%eax, -4(%rbp)
	.loc 1 2169 12
	movl	-24(%rbp), %eax
	andl	$15, %eax
	movl	%eax, -32(%rbp)
	.loc 1 2170 25
	movq	-56(%rbp), %rax
	movl	18464(%rax), %edx
	movl	-32(%rbp), %eax
	movl	%eax, %ecx
	sall	%cl, %edx
	movq	-56(%rbp), %rax
	movl	%edx, 18464(%rax)
	.loc 1 2171 23
	movq	-56(%rbp), %rax
	movl	18468(%rax), %eax
	subl	-32(%rbp), %eax
	movl	%eax, %edx
	movq	-56(%rbp), %rax
	movl	%edx, 18468(%rax)
	.loc 1 2173 37
	movl	-4(%rbp), %eax
	leal	1(%rax), %edx
	movl	%edx, -4(%rbp)
	.loc 1 2173 35
	cltq
	leaq	stbi__jpeg_dezigzag(%rip), %rdx
	movzbl	(%rax,%rdx), %eax
	.loc 1 2173 14
	movzbl	%al, %eax
	movl	%eax, -36(%rbp)
	.loc 1 2174 34
	movl	-24(%rbp), %eax
	sarl	$8, %eax
	.loc 1 2174 22
	movl	%eax, %edx
	.loc 1 2174 49
	movl	-36(%rbp), %eax
	leaq	(%rax,%rax), %rcx
	movq	16(%rbp), %rax
	addq	%rcx, %rax
	.loc 1 2174 22
	movzwl	(%rax), %eax
	imull	%eax, %edx
	.loc 1 2174 14
	movl	-36(%rbp), %eax
	leaq	(%rax,%rax), %rcx
	movq	-64(%rbp), %rax
	addq	%rcx, %rax
	.loc 1 2174 20
	movw	%dx, (%rax)
	jmp	.L404
.L403:
.LBB774:
	.loc 1 2176 19
	movq	-80(%rbp), %rdx
	movq	-56(%rbp), %rax
	movq	%rdx, %rsi
	movq	%rax, %rdi
	call	stbi__jpeg_huff_decode
	movl	%eax, -28(%rbp)
	.loc 1 2177 13
	cmpl	$0, -28(%rbp)
	jns	.L405
	.loc 1 2177 29 discriminator 1
	leaq	.LC14(%rip), %rdi
	call	stbi__err
	jmp	.L399
.L405:
	.loc 1 2178 12
	movl	-28(%rbp), %eax
	andl	$15, %eax
	movl	%eax, -32(%rbp)
	.loc 1 2179 12
	movl	-28(%rbp), %eax
	sarl	$4, %eax
	movl	%eax, -24(%rbp)
	.loc 1 2180 13
	cmpl	$0, -32(%rbp)
	jne	.L406
	.loc 1 2181 16
	cmpl	$240, -28(%rbp)
	jne	.L410
	.loc 1 2182 15
	addl	$16, -4(%rbp)
	jmp	.L404
.L406:
	.loc 1 2184 15
	movl	-24(%rbp), %eax
	addl	%eax, -4(%rbp)
	.loc 1 2186 40
	movl	-4(%rbp), %eax
	leal	1(%rax), %edx
	movl	%edx, -4(%rbp)
	.loc 1 2186 38
	cltq
	leaq	stbi__jpeg_dezigzag(%rip), %rdx
	movzbl	(%rax,%rdx), %eax
	.loc 1 2186 17
	movzbl	%al, %eax
	movl	%eax, -36(%rbp)
	.loc 1 2187 34
	movl	-32(%rbp), %edx
	movq	-56(%rbp), %rax
	movl	%edx, %esi
	movq	%rax, %rdi
	call	stbi__extend_receive
	.loc 1 2187 25
	movl	%eax, %edx
	.loc 1 2187 69
	movl	-36(%rbp), %eax
	leaq	(%rax,%rax), %rcx
	movq	16(%rbp), %rax
	addq	%rcx, %rax
	.loc 1 2187 25
	movzwl	(%rax), %eax
	imull	%eax, %edx
	.loc 1 2187 17
	movl	-36(%rbp), %eax
	leaq	(%rax,%rax), %rcx
	movq	-64(%rbp), %rax
	addq	%rcx, %rax
	.loc 1 2187 23
	movw	%dx, (%rax)
.L404:
.LBE774:
.LBE773:
	.loc 1 2190 4
	cmpl	$63, -4(%rbp)
	jle	.L409
	jmp	.L408
.L410:
.LBB776:
.LBB775:
	.loc 1 2181 13
	nop
.L408:
.LBE775:
.LBE776:
	.loc 1 2191 11
	movl	$1, %eax
.L399:
	.loc 1 2192 1
	leave
	.cfi_def_cfa 7, 8
	ret
	.cfi_endproc
.LFE580:
	.size	stbi__jpeg_decode_block, .-stbi__jpeg_decode_block
	.section	.rodata
.LC15:
	.string	"can't merge dc and ac"
	.text
	.type	stbi__jpeg_decode_block_prog_dc, @function
stbi__jpeg_decode_block_prog_dc:
.LFB581:
	.loc 1 2195 1
	.cfi_startproc
	pushq	%rbp
	.cfi_def_cfa_offset 16
	.cfi_offset 6, -16
	movq	%rsp, %rbp
	.cfi_def_cfa_register 6
	subq	$48, %rsp
	movq	%rdi, -24(%rbp)
	movq	%rsi, -32(%rbp)
	movq	%rdx, -40(%rbp)
	movl	%ecx, -44(%rbp)
	.loc 1 2198 9
	movq	-24(%rbp), %rax
	movl	18488(%rax), %eax
	.loc 1 2198 7
	testl	%eax, %eax
	je	.L412
	.loc 1 2198 33 discriminator 1
	leaq	.LC15(%rip), %rdi
	call	stbi__err
	jmp	.L413
.L412:
	.loc 1 2200 9
	movq	-24(%rbp), %rax
	movl	18468(%rax), %eax
	.loc 1 2200 7
	cmpl	$15, %eax
	jg	.L414
	.loc 1 2200 27 discriminator 1
	movq	-24(%rbp), %rax
	movq	%rax, %rdi
	call	stbi__grow_buffer_unsafe
.L414:
	.loc 1 2202 9
	movq	-24(%rbp), %rax
	movl	18492(%rax), %eax
	.loc 1 2202 7
	testl	%eax, %eax
	jne	.L415
	.loc 1 2204 7
	movq	-32(%rbp), %rax
	movl	$128, %edx
	movl	$0, %esi
	movq	%rax, %rdi
	call	memset@PLT
	.loc 1 2205 11
	movq	-40(%rbp), %rdx
	movq	-24(%rbp), %rax
	movq	%rdx, %rsi
	movq	%rax, %rdi
	call	stbi__jpeg_huff_decode
	movl	%eax, -4(%rbp)
	.loc 1 2206 10
	cmpl	$-1, -4(%rbp)
	jne	.L416
	.loc 1 2206 27 discriminator 1
	leaq	.LC15(%rip), %rdi
	call	stbi__err
	jmp	.L413
.L416:
	.loc 1 2207 45
	cmpl	$0, -4(%rbp)
	je	.L417
	.loc 1 2207 18 discriminator 1
	movl	-4(%rbp), %edx
	movq	-24(%rbp), %rax
	movl	%edx, %esi
	movq	%rax, %rdi
	call	stbi__extend_receive
	jmp	.L418
.L417:
	.loc 1 2207 45 discriminator 2
	movl	$0, %eax
.L418:
	.loc 1 2207 12 discriminator 4
	movl	%eax, -8(%rbp)
	.loc 1 2209 26 discriminator 4
	movq	-24(%rbp), %rcx
	movl	-44(%rbp), %eax
	movslq	%eax, %rdx
	movq	%rdx, %rax
	addq	%rax, %rax
	addq	%rdx, %rax
	salq	$5, %rax
	addq	%rcx, %rax
	addq	$18104, %rax
	movl	(%rax), %edx
	.loc 1 2209 10 discriminator 4
	movl	-8(%rbp), %eax
	addl	%edx, %eax
	movl	%eax, -12(%rbp)
	.loc 1 2210 30 discriminator 4
	movq	-24(%rbp), %rcx
	movl	-44(%rbp), %eax
	movslq	%eax, %rdx
	movq	%rdx, %rax
	addq	%rax, %rax
	addq	%rdx, %rax
	salq	$5, %rax
	addq	%rcx, %rax
	leaq	18104(%rax), %rdx
	movl	-12(%rbp), %eax
	movl	%eax, (%rdx)
	.loc 1 2211 33 discriminator 4
	movq	-24(%rbp), %rax
	movl	18496(%rax), %eax
	.loc 1 2211 29 discriminator 4
	movl	-12(%rbp), %edx
	movl	%eax, %ecx
	sall	%cl, %edx
	movl	%edx, %eax
	.loc 1 2211 17 discriminator 4
	movl	%eax, %edx
	.loc 1 2211 15 discriminator 4
	movq	-32(%rbp), %rax
	movw	%dx, (%rax)
	jmp	.L419
.L415:
	.loc 1 2214 11
	movq	-24(%rbp), %rax
	movq	%rax, %rdi
	call	stbi__jpeg_get_bit
	.loc 1 2214 10
	testl	%eax, %eax
	je	.L419
	.loc 1 2215 18
	movq	-32(%rbp), %rax
	movzwl	(%rax), %eax
	movl	%eax, %esi
	.loc 1 2215 36
	movq	-24(%rbp), %rax
	movl	18496(%rax), %eax
	.loc 1 2215 32
	movl	$1, %edx
	movl	%eax, %ecx
	sall	%cl, %edx
	movl	%edx, %eax
	.loc 1 2215 18
	addl	%esi, %eax
	movl	%eax, %edx
	movq	-32(%rbp), %rax
	movw	%dx, (%rax)
.L419:
	.loc 1 2217 11
	movl	$1, %eax
.L413:
	.loc 1 2218 1
	leave
	.cfi_def_cfa 7, 8
	ret
	.cfi_endproc
.LFE581:
	.size	stbi__jpeg_decode_block_prog_dc, .-stbi__jpeg_decode_block_prog_dc
	.type	stbi__jpeg_decode_block_prog_ac, @function
stbi__jpeg_decode_block_prog_ac:
.LFB582:
	.loc 1 2223 1
	.cfi_startproc
	pushq	%rbp
	.cfi_def_cfa_offset 16
	.cfi_offset 6, -16
	movq	%rsp, %rbp
	.cfi_def_cfa_register 6
	subq	$96, %rsp
	movq	%rdi, -72(%rbp)
	movq	%rsi, -80(%rbp)
	movq	%rdx, -88(%rbp)
	movq	%rcx, -96(%rbp)
	.loc 1 2225 9
	movq	-72(%rbp), %rax
	movl	18484(%rax), %eax
	.loc 1 2225 7
	testl	%eax, %eax
	jne	.L421
	.loc 1 2225 35 discriminator 1
	leaq	.LC15(%rip), %rdi
	call	stbi__err
	jmp	.L422
.L421:
	.loc 1 2227 9
	movq	-72(%rbp), %rax
	movl	18492(%rax), %eax
	.loc 1 2227 7
	testl	%eax, %eax
	jne	.L423
.LBB777:
	.loc 1 2228 11
	movq	-72(%rbp), %rax
	movl	18496(%rax), %eax
	movl	%eax, -44(%rbp)
	.loc 1 2230 12
	movq	-72(%rbp), %rax
	movl	18500(%rax), %eax
	.loc 1 2230 10
	testl	%eax, %eax
	je	.L424
	.loc 1 2231 13
	movq	-72(%rbp), %rax
	movl	18500(%rax), %eax
	.loc 1 2231 10
	leal	-1(%rax), %edx
	movq	-72(%rbp), %rax
	movl	%edx, 18500(%rax)
	.loc 1 2232 17
	movl	$1, %eax
	jmp	.L422
.L424:
	.loc 1 2235 9
	movq	-72(%rbp), %rax
	movl	18484(%rax), %eax
	movl	%eax, -4(%rbp)
.L433:
.LBB778:
	.loc 1 2239 15
	movq	-72(%rbp), %rax
	movl	18468(%rax), %eax
	.loc 1 2239 13
	cmpl	$15, %eax
	jg	.L425
	.loc 1 2239 33 discriminator 1
	movq	-72(%rbp), %rax
	movq	%rax, %rdi
	call	stbi__grow_buffer_unsafe
.L425:
	.loc 1 2240 16
	movq	-72(%rbp), %rax
	movl	18464(%rax), %eax
	.loc 1 2240 51
	shrl	$23, %eax
	.loc 1 2240 12
	movl	%eax, -48(%rbp)
	.loc 1 2241 17
	movl	-48(%rbp), %eax
	cltq
	leaq	(%rax,%rax), %rdx
	movq	-96(%rbp), %rax
	addq	%rdx, %rax
	movzwl	(%rax), %eax
	.loc 1 2241 12
	cwtl
	movl	%eax, -52(%rbp)
	.loc 1 2242 13
	cmpl	$0, -52(%rbp)
	je	.L426
	.loc 1 2243 21
	movl	-52(%rbp), %eax
	sarl	$4, %eax
	.loc 1 2243 27
	andl	$15, %eax
	.loc 1 2243 15
	addl	%eax, -4(%rbp)
	.loc 1 2244 15
	movl	-52(%rbp), %eax
	andl	$15, %eax
	movl	%eax, -60(%rbp)
	.loc 1 2245 28
	movq	-72(%rbp), %rax
	movl	18464(%rax), %edx
	movl	-60(%rbp), %eax
	movl	%eax, %ecx
	sall	%cl, %edx
	movq	-72(%rbp), %rax
	movl	%edx, 18464(%rax)
	.loc 1 2246 26
	movq	-72(%rbp), %rax
	movl	18468(%rax), %eax
	subl	-60(%rbp), %eax
	movl	%eax, %edx
	movq	-72(%rbp), %rax
	movl	%edx, 18468(%rax)
	.loc 1 2247 40
	movl	-4(%rbp), %eax
	leal	1(%rax), %edx
	movl	%edx, -4(%rbp)
	.loc 1 2247 38
	cltq
	leaq	stbi__jpeg_dezigzag(%rip), %rdx
	movzbl	(%rax,%rdx), %eax
	.loc 1 2247 17
	movzbl	%al, %eax
	movl	%eax, -64(%rbp)
	.loc 1 2248 37
	movl	-52(%rbp), %eax
	sarl	$8, %eax
	movl	%eax, %edx
	.loc 1 2248 43
	movl	-44(%rbp), %eax
	movl	%eax, %ecx
	sall	%cl, %edx
	.loc 1 2248 17
	movl	-64(%rbp), %eax
	leaq	(%rax,%rax), %rcx
	movq	-80(%rbp), %rax
	addq	%rcx, %rax
	.loc 1 2248 23
	movw	%dx, (%rax)
	jmp	.L427
.L426:
.LBB779:
	.loc 1 2250 22
	movq	-88(%rbp), %rdx
	movq	-72(%rbp), %rax
	movq	%rdx, %rsi
	movq	%rax, %rdi
	call	stbi__jpeg_huff_decode
	movl	%eax, -56(%rbp)
	.loc 1 2251 16
	cmpl	$0, -56(%rbp)
	jns	.L428
	.loc 1 2251 32 discriminator 1
	leaq	.LC14(%rip), %rdi
	call	stbi__err
	jmp	.L422
.L428:
	.loc 1 2252 15
	movl	-56(%rbp), %eax
	andl	$15, %eax
	movl	%eax, -60(%rbp)
	.loc 1 2253 15
	movl	-56(%rbp), %eax
	sarl	$4, %eax
	movl	%eax, -52(%rbp)
	.loc 1 2254 16
	cmpl	$0, -60(%rbp)
	jne	.L429
	.loc 1 2255 19
	cmpl	$14, -52(%rbp)
	jg	.L430
	.loc 1 2256 35
	movl	-52(%rbp), %eax
	movl	$1, %edx
	movl	%eax, %ecx
	sall	%cl, %edx
	.loc 1 2256 30
	movq	-72(%rbp), %rax
	movl	%edx, 18500(%rax)
	.loc 1 2257 22
	cmpl	$0, -52(%rbp)
	je	.L431
	.loc 1 2258 36
	movl	-52(%rbp), %edx
	movq	-72(%rbp), %rax
	movl	%edx, %esi
	movq	%rax, %rdi
	call	stbi__jpeg_get_bits
	movl	%eax, %edx
	.loc 1 2258 33
	movq	-72(%rbp), %rax
	movl	18500(%rax), %eax
	addl	%eax, %edx
	movq	-72(%rbp), %rax
	movl	%edx, 18500(%rax)
.L431:
	.loc 1 2259 22
	movq	-72(%rbp), %rax
	movl	18500(%rax), %eax
	.loc 1 2259 19
	leal	-1(%rax), %edx
	movq	-72(%rbp), %rax
	movl	%edx, 18500(%rax)
	.loc 1 2260 19
	jmp	.L434
.L430:
	.loc 1 2262 18
	addl	$16, -4(%rbp)
	jmp	.L427
.L429:
	.loc 1 2264 18
	movl	-52(%rbp), %eax
	addl	%eax, -4(%rbp)
	.loc 1 2265 43
	movl	-4(%rbp), %eax
	leal	1(%rax), %edx
	movl	%edx, -4(%rbp)
	.loc 1 2265 41
	cltq
	leaq	stbi__jpeg_dezigzag(%rip), %rdx
	movzbl	(%rax,%rdx), %eax
	.loc 1 2265 20
	movzbl	%al, %eax
	movl	%eax, -64(%rbp)
	.loc 1 2266 37
	movl	-60(%rbp), %edx
	movq	-72(%rbp), %rax
	movl	%edx, %esi
	movq	%rax, %rdi
	call	stbi__extend_receive
	movl	%eax, %edx
	.loc 1 2266 63
	movl	-44(%rbp), %eax
	movl	%eax, %ecx
	sall	%cl, %edx
	.loc 1 2266 20
	movl	-64(%rbp), %eax
	leaq	(%rax,%rax), %rcx
	movq	-80(%rbp), %rax
	addq	%rcx, %rax
	.loc 1 2266 26
	movw	%dx, (%rax)
.L427:
.LBE779:
.LBE778:
	.loc 1 2269 22
	movq	-72(%rbp), %rax
	movl	18488(%rax), %eax
	.loc 1 2269 7
	cmpl	%eax, -4(%rbp)
	jle	.L433
	jmp	.L434
.L423:
.LBE777:
.LBB780:
	.loc 1 2273 34
	movq	-72(%rbp), %rax
	movl	18496(%rax), %eax
	.loc 1 2273 30
	movl	$1, %edx
	movl	%eax, %ecx
	sall	%cl, %edx
	movl	%edx, %eax
	.loc 1 2273 13
	movw	%ax, -14(%rbp)
	.loc 1 2275 12
	movq	-72(%rbp), %rax
	movl	18500(%rax), %eax
	.loc 1 2275 10
	testl	%eax, %eax
	je	.L435
	.loc 1 2276 13
	movq	-72(%rbp), %rax
	movl	18500(%rax), %eax
	.loc 1 2276 10
	leal	-1(%rax), %edx
	movq	-72(%rbp), %rax
	movl	%edx, 18500(%rax)
	.loc 1 2277 17
	movq	-72(%rbp), %rax
	movl	18484(%rax), %eax
	movl	%eax, -4(%rbp)
	.loc 1 2277 10
	jmp	.L436
.L439:
.LBB781:
	.loc 1 2278 49
	movl	-4(%rbp), %eax
	cltq
	leaq	stbi__jpeg_dezigzag(%rip), %rdx
	movzbl	(%rax,%rdx), %eax
	movzbl	%al, %eax
	.loc 1 2278 29
	leaq	(%rax,%rax), %rdx
	.loc 1 2278 20
	movq	-80(%rbp), %rax
	addq	%rdx, %rax
	movq	%rax, -40(%rbp)
	.loc 1 2279 17
	movq	-40(%rbp), %rax
	movzwl	(%rax), %eax
	.loc 1 2279 16
	testw	%ax, %ax
	je	.L437
	.loc 1 2280 20
	movq	-72(%rbp), %rax
	movq	%rax, %rdi
	call	stbi__jpeg_get_bit
	.loc 1 2280 19
	testl	%eax, %eax
	je	.L437
	.loc 1 2281 24
	movq	-40(%rbp), %rax
	movzwl	(%rax), %eax
	.loc 1 2281 33
	andw	-14(%rbp), %ax
	.loc 1 2281 22
	testw	%ax, %ax
	jne	.L437
	.loc 1 2282 26
	movq	-40(%rbp), %rax
	movzwl	(%rax), %eax
	.loc 1 2282 25
	testw	%ax, %ax
	jle	.L438
	.loc 1 2283 28
	movq	-40(%rbp), %rax
	movzwl	(%rax), %eax
	movl	%eax, %edx
	movzwl	-14(%rbp), %eax
	addl	%edx, %eax
	movl	%eax, %edx
	movq	-40(%rbp), %rax
	movw	%dx, (%rax)
	jmp	.L437
.L438:
	.loc 1 2285 28
	movq	-40(%rbp), %rax
	movzwl	(%rax), %eax
	movzwl	-14(%rbp), %edx
	subl	%edx, %eax
	movl	%eax, %edx
	movq	-40(%rbp), %rax
	movw	%dx, (%rax)
.L437:
.LBE781:
	.loc 1 2277 52 discriminator 2
	addl	$1, -4(%rbp)
.L436:
	.loc 1 2277 40 discriminator 1
	movq	-72(%rbp), %rax
	movl	18488(%rax), %eax
	.loc 1 2277 10 discriminator 1
	cmpl	%eax, -4(%rbp)
	jle	.L439
	jmp	.L434
.L435:
	.loc 1 2289 12
	movq	-72(%rbp), %rax
	movl	18484(%rax), %eax
	movl	%eax, -4(%rbp)
.L452:
.LBB782:
	.loc 1 2292 22
	movq	-88(%rbp), %rdx
	movq	-72(%rbp), %rax
	movq	%rdx, %rsi
	movq	%rax, %rdi
	call	stbi__jpeg_huff_decode
	movl	%eax, -20(%rbp)
	.loc 1 2293 16
	cmpl	$0, -20(%rbp)
	jns	.L440
	.loc 1 2293 32 discriminator 1
	leaq	.LC14(%rip), %rdi
	call	stbi__err
	jmp	.L422
.L440:
	.loc 1 2294 15
	movl	-20(%rbp), %eax
	andl	$15, %eax
	movl	%eax, -12(%rbp)
	.loc 1 2295 15
	movl	-20(%rbp), %eax
	sarl	$4, %eax
	movl	%eax, -8(%rbp)
	.loc 1 2296 16
	cmpl	$0, -12(%rbp)
	jne	.L441
	.loc 1 2297 19
	cmpl	$14, -8(%rbp)
	jg	.L446
	.loc 1 2298 35
	movl	-8(%rbp), %eax
	movl	$1, %edx
	movl	%eax, %ecx
	sall	%cl, %edx
	movl	%edx, %eax
	.loc 1 2298 41
	leal	-1(%rax), %edx
	.loc 1 2298 30
	movq	-72(%rbp), %rax
	movl	%edx, 18500(%rax)
	.loc 1 2299 22
	cmpl	$0, -8(%rbp)
	je	.L443
	.loc 1 2300 36
	movl	-8(%rbp), %edx
	movq	-72(%rbp), %rax
	movl	%edx, %esi
	movq	%rax, %rdi
	call	stbi__jpeg_get_bits
	movl	%eax, %edx
	.loc 1 2300 33
	movq	-72(%rbp), %rax
	movl	18500(%rax), %eax
	addl	%eax, %edx
	movq	-72(%rbp), %rax
	movl	%edx, 18500(%rax)
.L443:
	.loc 1 2301 21
	movl	$64, -8(%rbp)
	jmp	.L446
.L441:
	.loc 1 2308 19
	cmpl	$1, -12(%rbp)
	je	.L444
	.loc 1 2308 35 discriminator 1
	leaq	.LC14(%rip), %rdi
	call	stbi__err
	jmp	.L422
.L444:
	.loc 1 2310 20
	movq	-72(%rbp), %rax
	movq	%rax, %rdi
	call	stbi__jpeg_get_bit
	.loc 1 2310 19
	testl	%eax, %eax
	je	.L445
	.loc 1 2311 21
	movswl	-14(%rbp), %eax
	movl	%eax, -12(%rbp)
	jmp	.L446
.L445:
	.loc 1 2313 23
	movswl	-14(%rbp), %eax
	.loc 1 2313 21
	negl	%eax
	movl	%eax, -12(%rbp)
	.loc 1 2317 19
	jmp	.L446
.L451:
.LBB783:
	.loc 1 2318 54
	movl	-4(%rbp), %eax
	leal	1(%rax), %edx
	movl	%edx, -4(%rbp)
	.loc 1 2318 52
	cltq
	leaq	stbi__jpeg_dezigzag(%rip), %rdx
	movzbl	(%rax,%rdx), %eax
	movzbl	%al, %eax
	.loc 1 2318 32
	leaq	(%rax,%rax), %rdx
	.loc 1 2318 23
	movq	-80(%rbp), %rax
	addq	%rdx, %rax
	movq	%rax, -32(%rbp)
	.loc 1 2319 20
	movq	-32(%rbp), %rax
	movzwl	(%rax), %eax
	.loc 1 2319 19
	testw	%ax, %ax
	je	.L447
	.loc 1 2320 23
	movq	-72(%rbp), %rax
	movq	%rax, %rdi
	call	stbi__jpeg_get_bit
	.loc 1 2320 22
	testl	%eax, %eax
	je	.L446
	.loc 1 2321 27
	movq	-32(%rbp), %rax
	movzwl	(%rax), %eax
	.loc 1 2321 36
	andw	-14(%rbp), %ax
	.loc 1 2321 25
	testw	%ax, %ax
	jne	.L446
	.loc 1 2322 29
	movq	-32(%rbp), %rax
	movzwl	(%rax), %eax
	.loc 1 2322 28
	testw	%ax, %ax
	jle	.L448
	.loc 1 2323 31
	movq	-32(%rbp), %rax
	movzwl	(%rax), %eax
	movl	%eax, %edx
	movzwl	-14(%rbp), %eax
	addl	%edx, %eax
	movl	%eax, %edx
	movq	-32(%rbp), %rax
	movw	%dx, (%rax)
	jmp	.L446
.L448:
	.loc 1 2325 31
	movq	-32(%rbp), %rax
	movzwl	(%rax), %eax
	movzwl	-14(%rbp), %edx
	subl	%edx, %eax
	movl	%eax, %edx
	movq	-32(%rbp), %rax
	movw	%dx, (%rax)
	jmp	.L446
.L447:
	.loc 1 2328 22
	cmpl	$0, -8(%rbp)
	jne	.L449
	.loc 1 2329 27
	movl	-12(%rbp), %eax
	movl	%eax, %edx
	.loc 1 2329 25
	movq	-32(%rbp), %rax
	movw	%dx, (%rax)
	.loc 1 2330 22
	jmp	.L450
.L449:
	.loc 1 2332 19
	subl	$1, -8(%rbp)
.L446:
.LBE783:
	.loc 1 2317 26
	movq	-72(%rbp), %rax
	movl	18488(%rax), %eax
	.loc 1 2317 19
	cmpl	%eax, -4(%rbp)
	jle	.L451
.L450:
.LBE782:
	.loc 1 2335 25
	movq	-72(%rbp), %rax
	movl	18488(%rax), %eax
	.loc 1 2335 10
	cmpl	%eax, -4(%rbp)
	jle	.L452
.L434:
.LBE780:
	.loc 1 2338 11
	movl	$1, %eax
.L422:
	.loc 1 2339 1
	leave
	.cfi_def_cfa 7, 8
	ret
	.cfi_endproc
.LFE582:
	.size	stbi__jpeg_decode_block_prog_ac, .-stbi__jpeg_decode_block_prog_ac
	.type	stbi__clamp, @function
stbi__clamp:
.LFB583:
	.loc 1 2343 1
	.cfi_startproc
	pushq	%rbp
	.cfi_def_cfa_offset 16
	.cfi_offset 6, -16
	movq	%rsp, %rbp
	.cfi_def_cfa_register 6
	movl	%edi, -4(%rbp)
	.loc 1 2345 8
	movl	-4(%rbp), %eax
	.loc 1 2345 7
	cmpl	$255, %eax
	jbe	.L454
	.loc 1 2346 10
	cmpl	$0, -4(%rbp)
	jns	.L455
	.loc 1 2346 25 discriminator 1
	movl	$0, %eax
	jmp	.L456
.L455:
	.loc 1 2347 10
	cmpl	$255, -4(%rbp)
	jle	.L454
	.loc 1 2347 27 discriminator 1
	movl	$-1, %eax
	jmp	.L456
.L454:
	.loc 1 2349 11
	movl	-4(%rbp), %eax
.L456:
	.loc 1 2350 1
	popq	%rbp
	.cfi_def_cfa 7, 8
	ret
	.cfi_endproc
.LFE583:
	.size	stbi__clamp, .-stbi__clamp
	.type	stbi__idct_block, @function
stbi__idct_block:
.LFB584:
	.loc 1 2394 1
	.cfi_startproc
	pushq	%rbp
	.cfi_def_cfa_offset 16
	.cfi_offset 6, -16
	movq	%rsp, %rbp
	.cfi_def_cfa_register 6
	pushq	%rbx
	subq	$424, %rsp
	.cfi_offset 3, -24
	movq	%rdi, -416(%rbp)
	movl	%esi, -420(%rbp)
	movq	%rdx, -432(%rbp)
	.loc 1 2395 19
	leaq	-408(%rbp), %rax
	movq	%rax, -24(%rbp)
	.loc 1 2397 11
	movq	-432(%rbp), %rax
	movq	%rax, -40(%rbp)
	.loc 1 2400 10
	movl	$0, -12(%rbp)
	.loc 1 2400 4
	jmp	.L458
.L461:
	.loc 1 2402 12
	movq	-40(%rbp), %rax
	addq	$16, %rax
	movzwl	(%rax), %eax
	.loc 1 2402 10
	testw	%ax, %ax
	jne	.L459
	.loc 1 2402 24 discriminator 1
	movq	-40(%rbp), %rax
	addq	$32, %rax
	movzwl	(%rax), %eax
	.loc 1 2402 20 discriminator 1
	testw	%ax, %ax
	jne	.L459
	.loc 1 2402 36 discriminator 2
	movq	-40(%rbp), %rax
	addq	$48, %rax
	movzwl	(%rax), %eax
	.loc 1 2402 32 discriminator 2
	testw	%ax, %ax
	jne	.L459
	.loc 1 2402 48 discriminator 3
	movq	-40(%rbp), %rax
	addq	$64, %rax
	movzwl	(%rax), %eax
	.loc 1 2402 44 discriminator 3
	testw	%ax, %ax
	jne	.L459
	.loc 1 2403 16
	movq	-40(%rbp), %rax
	addq	$80, %rax
	movzwl	(%rax), %eax
	.loc 1 2403 12
	testw	%ax, %ax
	jne	.L459
	.loc 1 2403 28 discriminator 1
	movq	-40(%rbp), %rax
	addq	$96, %rax
	movzwl	(%rax), %eax
	.loc 1 2403 24 discriminator 1
	testw	%ax, %ax
	jne	.L459
	.loc 1 2403 40 discriminator 2
	movq	-40(%rbp), %rax
	addq	$112, %rax
	movzwl	(%rax), %eax
	.loc 1 2403 36 discriminator 2
	testw	%ax, %ax
	jne	.L459
.LBB784:
	.loc 1 2408 24
	movq	-40(%rbp), %rax
	movzwl	(%rax), %eax
	cwtl
	.loc 1 2408 14
	sall	$2, %eax
	movl	%eax, -96(%rbp)
	.loc 1 2409 65
	movq	-24(%rbp), %rax
	addq	$224, %rax
	.loc 1 2409 70
	movl	-96(%rbp), %edx
	movl	%edx, (%rax)
	.loc 1 2409 57
	movq	-24(%rbp), %rdx
	addq	$192, %rdx
	.loc 1 2409 65
	movl	(%rax), %eax
	.loc 1 2409 62
	movl	%eax, (%rdx)
	.loc 1 2409 49
	movq	-24(%rbp), %rax
	addq	$160, %rax
	.loc 1 2409 57
	movl	(%rdx), %edx
	.loc 1 2409 54
	movl	%edx, (%rax)
	.loc 1 2409 41
	movq	-24(%rbp), %rdx
	subq	$-128, %rdx
	.loc 1 2409 49
	movl	(%rax), %eax
	.loc 1 2409 46
	movl	%eax, (%rdx)
	.loc 1 2409 33
	movq	-24(%rbp), %rax
	addq	$96, %rax
	.loc 1 2409 41
	movl	(%rdx), %edx
	.loc 1 2409 38
	movl	%edx, (%rax)
	.loc 1 2409 25
	movq	-24(%rbp), %rdx
	addq	$64, %rdx
	.loc 1 2409 33
	movl	(%rax), %eax
	.loc 1 2409 30
	movl	%eax, (%rdx)
	.loc 1 2409 18
	movq	-24(%rbp), %rax
	addq	$32, %rax
	.loc 1 2409 25
	movl	(%rdx), %edx
	.loc 1 2409 22
	movl	%edx, (%rax)
	.loc 1 2409 18
	movl	(%rax), %edx
	.loc 1 2409 15
	movq	-24(%rbp), %rax
	movl	%edx, (%rax)
.LBE784:
	.loc 1 2403 49
	jmp	.L460
.L459:
.LBB785:
	.loc 1 2411 10
	movq	-40(%rbp), %rax
	addq	$32, %rax
	movzwl	(%rax), %eax
	cwtl
	movl	%eax, -100(%rbp)
	movq	-40(%rbp), %rax
	addq	$96, %rax
	movzwl	(%rax), %eax
	cwtl
	movl	%eax, -104(%rbp)
	movl	-100(%rbp), %edx
	movl	-104(%rbp), %eax
	addl	%edx, %eax
	imull	$2217, %eax, %eax
	movl	%eax, -108(%rbp)
	movl	-104(%rbp), %eax
	imull	$-7567, %eax, %edx
	movl	-108(%rbp), %eax
	addl	%edx, %eax
	movl	%eax, -112(%rbp)
	movl	-100(%rbp), %eax
	imull	$3135, %eax, %edx
	movl	-108(%rbp), %eax
	addl	%edx, %eax
	movl	%eax, -116(%rbp)
	movq	-40(%rbp), %rax
	movzwl	(%rax), %eax
	cwtl
	movl	%eax, -100(%rbp)
	movq	-40(%rbp), %rax
	addq	$64, %rax
	movzwl	(%rax), %eax
	cwtl
	movl	%eax, -104(%rbp)
	movl	-100(%rbp), %edx
	movl	-104(%rbp), %eax
	addl	%edx, %eax
	sall	$12, %eax
	movl	%eax, -120(%rbp)
	movl	-100(%rbp), %eax
	subl	-104(%rbp), %eax
	sall	$12, %eax
	movl	%eax, -124(%rbp)
	movl	-120(%rbp), %edx
	movl	-116(%rbp), %eax
	addl	%edx, %eax
	movl	%eax, -128(%rbp)
	movl	-120(%rbp), %eax
	subl	-116(%rbp), %eax
	movl	%eax, -132(%rbp)
	movl	-124(%rbp), %edx
	movl	-112(%rbp), %eax
	addl	%edx, %eax
	movl	%eax, -136(%rbp)
	movl	-124(%rbp), %eax
	subl	-112(%rbp), %eax
	movl	%eax, -140(%rbp)
	movq	-40(%rbp), %rax
	addq	$112, %rax
	movzwl	(%rax), %eax
	cwtl
	movl	%eax, -120(%rbp)
	movq	-40(%rbp), %rax
	addq	$80, %rax
	movzwl	(%rax), %eax
	cwtl
	movl	%eax, -124(%rbp)
	movq	-40(%rbp), %rax
	addq	$48, %rax
	movzwl	(%rax), %eax
	cwtl
	movl	%eax, -112(%rbp)
	movq	-40(%rbp), %rax
	addq	$16, %rax
	movzwl	(%rax), %eax
	cwtl
	movl	%eax, -116(%rbp)
	movl	-120(%rbp), %edx
	movl	-112(%rbp), %eax
	addl	%edx, %eax
	movl	%eax, -104(%rbp)
	movl	-124(%rbp), %edx
	movl	-116(%rbp), %eax
	addl	%edx, %eax
	movl	%eax, -144(%rbp)
	movl	-120(%rbp), %edx
	movl	-116(%rbp), %eax
	addl	%edx, %eax
	movl	%eax, -108(%rbp)
	movl	-124(%rbp), %edx
	movl	-112(%rbp), %eax
	addl	%edx, %eax
	movl	%eax, -100(%rbp)
	movl	-104(%rbp), %edx
	movl	-144(%rbp), %eax
	addl	%edx, %eax
	imull	$4816, %eax, %eax
	movl	%eax, -148(%rbp)
	movl	-120(%rbp), %eax
	imull	$1223, %eax, %eax
	movl	%eax, -120(%rbp)
	movl	-124(%rbp), %eax
	imull	$8410, %eax, %eax
	movl	%eax, -124(%rbp)
	movl	-112(%rbp), %eax
	imull	$12586, %eax, %eax
	movl	%eax, -112(%rbp)
	movl	-116(%rbp), %eax
	imull	$6149, %eax, %eax
	movl	%eax, -116(%rbp)
	movl	-108(%rbp), %eax
	imull	$-3685, %eax, %edx
	movl	-148(%rbp), %eax
	addl	%edx, %eax
	movl	%eax, -108(%rbp)
	movl	-100(%rbp), %eax
	imull	$-10497, %eax, %edx
	movl	-148(%rbp), %eax
	addl	%edx, %eax
	movl	%eax, -100(%rbp)
	movl	-104(%rbp), %eax
	imull	$-8034, %eax, %eax
	movl	%eax, -104(%rbp)
	movl	-144(%rbp), %eax
	imull	$-1597, %eax, %eax
	movl	%eax, -144(%rbp)
	movl	-108(%rbp), %edx
	movl	-144(%rbp), %eax
	addl	%edx, %eax
	addl	%eax, -116(%rbp)
	movl	-100(%rbp), %edx
	movl	-104(%rbp), %eax
	addl	%edx, %eax
	addl	%eax, -112(%rbp)
	movl	-100(%rbp), %edx
	movl	-144(%rbp), %eax
	addl	%edx, %eax
	addl	%eax, -124(%rbp)
	movl	-108(%rbp), %edx
	movl	-104(%rbp), %eax
	addl	%edx, %eax
	addl	%eax, -120(%rbp)
	.loc 1 2414 13
	addl	$512, -128(%rbp)
	.loc 1 2414 24
	addl	$512, -136(%rbp)
	.loc 1 2414 35
	addl	$512, -140(%rbp)
	.loc 1 2414 46
	addl	$512, -132(%rbp)
	.loc 1 2415 21
	movl	-128(%rbp), %edx
	movl	-116(%rbp), %eax
	addl	%edx, %eax
	.loc 1 2415 26
	sarl	$10, %eax
	movl	%eax, %edx
	.loc 1 2415 16
	movq	-24(%rbp), %rax
	movl	%edx, (%rax)
	.loc 1 2416 21
	movl	-128(%rbp), %eax
	subl	-116(%rbp), %eax
	movl	%eax, %edx
	.loc 1 2416 11
	movq	-24(%rbp), %rax
	addq	$224, %rax
	.loc 1 2416 26
	sarl	$10, %edx
	.loc 1 2416 16
	movl	%edx, (%rax)
	.loc 1 2417 21
	movl	-136(%rbp), %edx
	movl	-112(%rbp), %eax
	addl	%eax, %edx
	.loc 1 2417 11
	movq	-24(%rbp), %rax
	addq	$32, %rax
	.loc 1 2417 26
	sarl	$10, %edx
	.loc 1 2417 16
	movl	%edx, (%rax)
	.loc 1 2418 21
	movl	-136(%rbp), %eax
	subl	-112(%rbp), %eax
	movl	%eax, %edx
	.loc 1 2418 11
	movq	-24(%rbp), %rax
	addq	$192, %rax
	.loc 1 2418 26
	sarl	$10, %edx
	.loc 1 2418 16
	movl	%edx, (%rax)
	.loc 1 2419 21
	movl	-140(%rbp), %edx
	movl	-124(%rbp), %eax
	addl	%eax, %edx
	.loc 1 2419 11
	movq	-24(%rbp), %rax
	addq	$64, %rax
	.loc 1 2419 26
	sarl	$10, %edx
	.loc 1 2419 16
	movl	%edx, (%rax)
	.loc 1 2420 21
	movl	-140(%rbp), %eax
	subl	-124(%rbp), %eax
	movl	%eax, %edx
	.loc 1 2420 11
	movq	-24(%rbp), %rax
	addq	$160, %rax
	.loc 1 2420 26
	sarl	$10, %edx
	.loc 1 2420 16
	movl	%edx, (%rax)
	.loc 1 2421 21
	movl	-132(%rbp), %edx
	movl	-120(%rbp), %eax
	addl	%eax, %edx
	.loc 1 2421 11
	movq	-24(%rbp), %rax
	addq	$96, %rax
	.loc 1 2421 26
	sarl	$10, %edx
	.loc 1 2421 16
	movl	%edx, (%rax)
	.loc 1 2422 21
	movl	-132(%rbp), %eax
	subl	-120(%rbp), %eax
	movl	%eax, %edx
	.loc 1 2422 11
	movq	-24(%rbp), %rax
	subq	$-128, %rax
	.loc 1 2422 26
	sarl	$10, %edx
	.loc 1 2422 16
	movl	%edx, (%rax)
.L460:
.LBE785:
	.loc 1 2400 21 discriminator 2
	addl	$1, -12(%rbp)
	.loc 1 2400 25 discriminator 2
	addq	$2, -40(%rbp)
	.loc 1 2400 30 discriminator 2
	addq	$4, -24(%rbp)
.L458:
	.loc 1 2400 4 discriminator 1
	cmpl	$7, -12(%rbp)
	jle	.L461
	.loc 1 2426 10
	movl	$0, -12(%rbp)
	.loc 1 2426 15
	leaq	-408(%rbp), %rax
	movq	%rax, -24(%rbp)
	.loc 1 2426 22
	movq	-416(%rbp), %rax
	movq	%rax, -32(%rbp)
	.loc 1 2426 4
	jmp	.L462
.L463:
.LBB786:
	.loc 1 2428 7 discriminator 3
	movq	-24(%rbp), %rax
	movl	8(%rax), %eax
	movl	%eax, -44(%rbp)
	movq	-24(%rbp), %rax
	movl	24(%rax), %eax
	movl	%eax, -48(%rbp)
	movl	-44(%rbp), %edx
	movl	-48(%rbp), %eax
	addl	%edx, %eax
	imull	$2217, %eax, %eax
	movl	%eax, -52(%rbp)
	movl	-48(%rbp), %eax
	imull	$-7567, %eax, %edx
	movl	-52(%rbp), %eax
	addl	%edx, %eax
	movl	%eax, -56(%rbp)
	movl	-44(%rbp), %eax
	imull	$3135, %eax, %edx
	movl	-52(%rbp), %eax
	addl	%edx, %eax
	movl	%eax, -60(%rbp)
	movq	-24(%rbp), %rax
	movl	(%rax), %eax
	movl	%eax, -44(%rbp)
	movq	-24(%rbp), %rax
	movl	16(%rax), %eax
	movl	%eax, -48(%rbp)
	movl	-44(%rbp), %edx
	movl	-48(%rbp), %eax
	addl	%edx, %eax
	sall	$12, %eax
	movl	%eax, -64(%rbp)
	movl	-44(%rbp), %eax
	subl	-48(%rbp), %eax
	sall	$12, %eax
	movl	%eax, -68(%rbp)
	movl	-64(%rbp), %edx
	movl	-60(%rbp), %eax
	addl	%edx, %eax
	movl	%eax, -72(%rbp)
	movl	-64(%rbp), %eax
	subl	-60(%rbp), %eax
	movl	%eax, -76(%rbp)
	movl	-68(%rbp), %edx
	movl	-56(%rbp), %eax
	addl	%edx, %eax
	movl	%eax, -80(%rbp)
	movl	-68(%rbp), %eax
	subl	-56(%rbp), %eax
	movl	%eax, -84(%rbp)
	movq	-24(%rbp), %rax
	movl	28(%rax), %eax
	movl	%eax, -64(%rbp)
	movq	-24(%rbp), %rax
	movl	20(%rax), %eax
	movl	%eax, -68(%rbp)
	movq	-24(%rbp), %rax
	movl	12(%rax), %eax
	movl	%eax, -56(%rbp)
	movq	-24(%rbp), %rax
	movl	4(%rax), %eax
	movl	%eax, -60(%rbp)
	movl	-64(%rbp), %edx
	movl	-56(%rbp), %eax
	addl	%edx, %eax
	movl	%eax, -48(%rbp)
	movl	-68(%rbp), %edx
	movl	-60(%rbp), %eax
	addl	%edx, %eax
	movl	%eax, -88(%rbp)
	movl	-64(%rbp), %edx
	movl	-60(%rbp), %eax
	addl	%edx, %eax
	movl	%eax, -52(%rbp)
	movl	-68(%rbp), %edx
	movl	-56(%rbp), %eax
	addl	%edx, %eax
	movl	%eax, -44(%rbp)
	movl	-48(%rbp), %edx
	movl	-88(%rbp), %eax
	addl	%edx, %eax
	imull	$4816, %eax, %eax
	movl	%eax, -92(%rbp)
	movl	-64(%rbp), %eax
	imull	$1223, %eax, %eax
	movl	%eax, -64(%rbp)
	movl	-68(%rbp), %eax
	imull	$8410, %eax, %eax
	movl	%eax, -68(%rbp)
	movl	-56(%rbp), %eax
	imull	$12586, %eax, %eax
	movl	%eax, -56(%rbp)
	movl	-60(%rbp), %eax
	imull	$6149, %eax, %eax
	movl	%eax, -60(%rbp)
	movl	-52(%rbp), %eax
	imull	$-3685, %eax, %edx
	movl	-92(%rbp), %eax
	addl	%edx, %eax
	movl	%eax, -52(%rbp)
	movl	-44(%rbp), %eax
	imull	$-10497, %eax, %edx
	movl	-92(%rbp), %eax
	addl	%edx, %eax
	movl	%eax, -44(%rbp)
	movl	-48(%rbp), %eax
	imull	$-8034, %eax, %eax
	movl	%eax, -48(%rbp)
	movl	-88(%rbp), %eax
	imull	$-1597, %eax, %eax
	movl	%eax, -88(%rbp)
	movl	-52(%rbp), %edx
	movl	-88(%rbp), %eax
	addl	%edx, %eax
	addl	%eax, -60(%rbp)
	movl	-44(%rbp), %edx
	movl	-48(%rbp), %eax
	addl	%edx, %eax
	addl	%eax, -56(%rbp)
	movl	-44(%rbp), %edx
	movl	-88(%rbp), %eax
	addl	%edx, %eax
	addl	%eax, -68(%rbp)
	movl	-52(%rbp), %edx
	movl	-48(%rbp), %eax
	addl	%edx, %eax
	addl	%eax, -64(%rbp)
	.loc 1 2435 10 discriminator 3
	addl	$16842752, -72(%rbp)
	.loc 1 2436 10 discriminator 3
	addl	$16842752, -80(%rbp)
	.loc 1 2437 10 discriminator 3
	addl	$16842752, -84(%rbp)
	.loc 1 2438 10 discriminator 3
	addl	$16842752, -76(%rbp)
	.loc 1 2441 29 discriminator 3
	movl	-72(%rbp), %edx
	movl	-60(%rbp), %eax
	addl	%edx, %eax
	.loc 1 2441 14 discriminator 3
	sarl	$17, %eax
	movl	%eax, %edi
	call	stbi__clamp
	.loc 1 2441 12 discriminator 3
	movq	-32(%rbp), %rdx
	movb	%al, (%rdx)
	.loc 1 2442 29 discriminator 3
	movl	-72(%rbp), %eax
	subl	-60(%rbp), %eax
	.loc 1 2442 14 discriminator 3
	sarl	$17, %eax
	.loc 1 2442 8 discriminator 3
	movq	-32(%rbp), %rdx
	leaq	7(%rdx), %rbx
	.loc 1 2442 14 discriminator 3
	movl	%eax, %edi
	call	stbi__clamp
	.loc 1 2442 12 discriminator 3
	movb	%al, (%rbx)
	.loc 1 2443 29 discriminator 3
	movl	-80(%rbp), %edx
	movl	-56(%rbp), %eax
	addl	%edx, %eax
	.loc 1 2443 14 discriminator 3
	sarl	$17, %eax
	.loc 1 2443 8 discriminator 3
	movq	-32(%rbp), %rdx
	leaq	1(%rdx), %rbx
	.loc 1 2443 14 discriminator 3
	movl	%eax, %edi
	call	stbi__clamp
	.loc 1 2443 12 discriminator 3
	movb	%al, (%rbx)
	.loc 1 2444 29 discriminator 3
	movl	-80(%rbp), %eax
	subl	-56(%rbp), %eax
	.loc 1 2444 14 discriminator 3
	sarl	$17, %eax
	.loc 1 2444 8 discriminator 3
	movq	-32(%rbp), %rdx
	leaq	6(%rdx), %rbx
	.loc 1 2444 14 discriminator 3
	movl	%eax, %edi
	call	stbi__clamp
	.loc 1 2444 12 discriminator 3
	movb	%al, (%rbx)
	.loc 1 2445 29 discriminator 3
	movl	-84(%rbp), %edx
	movl	-68(%rbp), %eax
	addl	%edx, %eax
	.loc 1 2445 14 discriminator 3
	sarl	$17, %eax
	.loc 1 2445 8 discriminator 3
	movq	-32(%rbp), %rdx
	leaq	2(%rdx), %rbx
	.loc 1 2445 14 discriminator 3
	movl	%eax, %edi
	call	stbi__clamp
	.loc 1 2445 12 discriminator 3
	movb	%al, (%rbx)
	.loc 1 2446 29 discriminator 3
	movl	-84(%rbp), %eax
	subl	-68(%rbp), %eax
	.loc 1 2446 14 discriminator 3
	sarl	$17, %eax
	.loc 1 2446 8 discriminator 3
	movq	-32(%rbp), %rdx
	leaq	5(%rdx), %rbx
	.loc 1 2446 14 discriminator 3
	movl	%eax, %edi
	call	stbi__clamp
	.loc 1 2446 12 discriminator 3
	movb	%al, (%rbx)
	.loc 1 2447 29 discriminator 3
	movl	-76(%rbp), %edx
	movl	-64(%rbp), %eax
	addl	%edx, %eax
	.loc 1 2447 14 discriminator 3
	sarl	$17, %eax
	.loc 1 2447 8 discriminator 3
	movq	-32(%rbp), %rdx
	leaq	3(%rdx), %rbx
	.loc 1 2447 14 discriminator 3
	movl	%eax, %edi
	call	stbi__clamp
	.loc 1 2447 12 discriminator 3
	movb	%al, (%rbx)
	.loc 1 2448 29 discriminator 3
	movl	-76(%rbp), %eax
	subl	-64(%rbp), %eax
	.loc 1 2448 14 discriminator 3
	sarl	$17, %eax
	.loc 1 2448 8 discriminator 3
	movq	-32(%rbp), %rdx
	leaq	4(%rdx), %rbx
	.loc 1 2448 14 discriminator 3
	movl	%eax, %edi
	call	stbi__clamp
	.loc 1 2448 12 discriminator 3
	movb	%al, (%rbx)
.LBE786:
	.loc 1 2426 35 discriminator 3
	addl	$1, -12(%rbp)
	.loc 1 2426 40 discriminator 3
	addq	$32, -24(%rbp)
	.loc 1 2426 45 discriminator 3
	movl	-420(%rbp), %eax
	cltq
	addq	%rax, -32(%rbp)
.L462:
	.loc 1 2426 4 discriminator 1
	cmpl	$7, -12(%rbp)
	jle	.L463
	.loc 1 2450 1
	nop
	nop
	movq	-8(%rbp), %rbx
	leave
	.cfi_def_cfa 7, 8
	ret
	.cfi_endproc
.LFE584:
	.size	stbi__idct_block, .-stbi__idct_block
	.type	stbi__idct_simd, @function
stbi__idct_simd:
.LFB585:
	.loc 1 2457 1
	.cfi_startproc
	pushq	%rbp
	.cfi_def_cfa_offset 16
	.cfi_offset 6, -16
	movq	%rsp, %rbp
	.cfi_def_cfa_register 6
	subq	$10824, %rsp
	movq	%rdi, -10920(%rbp)
	movl	%esi, -10924(%rbp)
	movq	%rdx, -10936(%rbp)
	movw	$2217, -10746(%rbp)
	movw	$-5350, -10748(%rbp)
	movw	$2217, -10750(%rbp)
	movw	$-5350, -10752(%rbp)
	movw	$2217, -10754(%rbp)
	movw	$-5350, -10756(%rbp)
	movw	$2217, -10758(%rbp)
	movw	$-5350, -10760(%rbp)
.LBB787:
.LBB788:
	.file 2 "/usr/lib/gcc/x86_64-linux-gnu/10/include/emmintrin.h"
	.loc 2 679 10
	movswl	-10746(%rbp), %eax
	movswl	-10748(%rbp), %edx
	movswl	-10750(%rbp), %ecx
	movswl	-10752(%rbp), %esi
	movswl	-10754(%rbp), %edi
	movswl	-10756(%rbp), %r8d
	movswl	-10758(%rbp), %r9d
	movswl	-10760(%rbp), %r10d
	movw	%r10w, -10762(%rbp)
	movw	%r9w, -10764(%rbp)
	movw	%r8w, -10766(%rbp)
	movw	%di, -10768(%rbp)
	movw	%si, -10770(%rbp)
	movw	%cx, -10772(%rbp)
	movw	%dx, -10774(%rbp)
	movw	%ax, -10776(%rbp)
.LBB789:
.LBB790:
	.loc 2 611 41
	movzwl	-10776(%rbp), %eax
	movd	%eax, %xmm0
	movzwl	-10774(%rbp), %eax
	pinsrw	$1, %eax, %xmm0
	movdqa	%xmm0, %xmm1
	movzwl	-10772(%rbp), %eax
	movd	%eax, %xmm0
	movzwl	-10770(%rbp), %eax
	pinsrw	$1, %eax, %xmm0
	movdqa	%xmm0, %xmm4
	movzwl	-10768(%rbp), %eax
	movd	%eax, %xmm0
	movzwl	-10766(%rbp), %eax
	pinsrw	$1, %eax, %xmm0
	movdqa	%xmm0, %xmm2
	movzwl	-10764(%rbp), %eax
	movd	%eax, %xmm0
	movzwl	-10762(%rbp), %eax
	pinsrw	$1, %eax, %xmm0
	movdqa	%xmm0, %xmm3
	punpckldq	%xmm4, %xmm1
	movdqa	%xmm1, %xmm0
	movdqa	%xmm0, %xmm1
	punpckldq	%xmm3, %xmm2
	movdqa	%xmm2, %xmm0
	movdqa	%xmm0, %xmm2
	punpcklqdq	%xmm2, %xmm1
	movdqa	%xmm1, %xmm0
.LBE790:
.LBE789:
	.loc 2 679 10
	nop
.LBE788:
.LBE787:
	.loc 1 2541 21
	movaps	%xmm0, -16(%rbp)
	movw	$5352, -10714(%rbp)
	movw	$2217, -10716(%rbp)
	movw	$5352, -10718(%rbp)
	movw	$2217, -10720(%rbp)
	movw	$5352, -10722(%rbp)
	movw	$2217, -10724(%rbp)
	movw	$5352, -10726(%rbp)
	movw	$2217, -10728(%rbp)
.LBB791:
.LBB792:
	.loc 2 679 10
	movswl	-10714(%rbp), %eax
	movswl	-10716(%rbp), %edx
	movswl	-10718(%rbp), %ecx
	movswl	-10720(%rbp), %esi
	movswl	-10722(%rbp), %edi
	movswl	-10724(%rbp), %r8d
	movswl	-10726(%rbp), %r9d
	movswl	-10728(%rbp), %r10d
	movw	%r10w, -10730(%rbp)
	movw	%r9w, -10732(%rbp)
	movw	%r8w, -10734(%rbp)
	movw	%di, -10736(%rbp)
	movw	%si, -10738(%rbp)
	movw	%cx, -10740(%rbp)
	movw	%dx, -10742(%rbp)
	movw	%ax, -10744(%rbp)
.LBB793:
.LBB794:
	.loc 2 611 41
	movzwl	-10744(%rbp), %eax
	movd	%eax, %xmm0
	movzwl	-10742(%rbp), %eax
	pinsrw	$1, %eax, %xmm0
	movdqa	%xmm0, %xmm1
	movzwl	-10740(%rbp), %eax
	movd	%eax, %xmm0
	movzwl	-10738(%rbp), %eax
	pinsrw	$1, %eax, %xmm0
	movdqa	%xmm0, %xmm4
	movzwl	-10736(%rbp), %eax
	movd	%eax, %xmm0
	movzwl	-10734(%rbp), %eax
	pinsrw	$1, %eax, %xmm0
	movdqa	%xmm0, %xmm2
	movzwl	-10732(%rbp), %eax
	movd	%eax, %xmm0
	movzwl	-10730(%rbp), %eax
	pinsrw	$1, %eax, %xmm0
	movdqa	%xmm0, %xmm3
	punpckldq	%xmm4, %xmm1
	movdqa	%xmm1, %xmm0
	movdqa	%xmm0, %xmm1
	punpckldq	%xmm3, %xmm2
	movdqa	%xmm2, %xmm0
	movdqa	%xmm0, %xmm2
	punpcklqdq	%xmm2, %xmm1
	movdqa	%xmm1, %xmm0
.LBE794:
.LBE793:
	.loc 2 679 10
	nop
.LBE792:
.LBE791:
	.loc 1 2542 21
	movaps	%xmm0, -32(%rbp)
	movw	$1131, -10682(%rbp)
	movw	$4816, -10684(%rbp)
	movw	$1131, -10686(%rbp)
	movw	$4816, -10688(%rbp)
	movw	$1131, -10690(%rbp)
	movw	$4816, -10692(%rbp)
	movw	$1131, -10694(%rbp)
	movw	$4816, -10696(%rbp)
.LBB795:
.LBB796:
	.loc 2 679 10
	movswl	-10682(%rbp), %eax
	movswl	-10684(%rbp), %edx
	movswl	-10686(%rbp), %ecx
	movswl	-10688(%rbp), %esi
	movswl	-10690(%rbp), %edi
	movswl	-10692(%rbp), %r8d
	movswl	-10694(%rbp), %r9d
	movswl	-10696(%rbp), %r10d
	movw	%r10w, -10698(%rbp)
	movw	%r9w, -10700(%rbp)
	movw	%r8w, -10702(%rbp)
	movw	%di, -10704(%rbp)
	movw	%si, -10706(%rbp)
	movw	%cx, -10708(%rbp)
	movw	%dx, -10710(%rbp)
	movw	%ax, -10712(%rbp)
.LBB797:
.LBB798:
	.loc 2 611 41
	movzwl	-10712(%rbp), %eax
	movd	%eax, %xmm0
	movzwl	-10710(%rbp), %eax
	pinsrw	$1, %eax, %xmm0
	movdqa	%xmm0, %xmm1
	movzwl	-10708(%rbp), %eax
	movd	%eax, %xmm0
	movzwl	-10706(%rbp), %eax
	pinsrw	$1, %eax, %xmm0
	movdqa	%xmm0, %xmm4
	movzwl	-10704(%rbp), %eax
	movd	%eax, %xmm0
	movzwl	-10702(%rbp), %eax
	pinsrw	$1, %eax, %xmm0
	movdqa	%xmm0, %xmm2
	movzwl	-10700(%rbp), %eax
	movd	%eax, %xmm0
	movzwl	-10698(%rbp), %eax
	pinsrw	$1, %eax, %xmm0
	movdqa	%xmm0, %xmm3
	punpckldq	%xmm4, %xmm1
	movdqa	%xmm1, %xmm0
	movdqa	%xmm0, %xmm1
	punpckldq	%xmm3, %xmm2
	movdqa	%xmm2, %xmm0
	movdqa	%xmm0, %xmm2
	punpcklqdq	%xmm2, %xmm1
	movdqa	%xmm1, %xmm0
.LBE798:
.LBE797:
	.loc 2 679 10
	nop
.LBE796:
.LBE795:
	.loc 1 2543 21
	movaps	%xmm0, -48(%rbp)
	movw	$4816, -10650(%rbp)
	movw	$-5681, -10652(%rbp)
	movw	$4816, -10654(%rbp)
	movw	$-5681, -10656(%rbp)
	movw	$4816, -10658(%rbp)
	movw	$-5681, -10660(%rbp)
	movw	$4816, -10662(%rbp)
	movw	$-5681, -10664(%rbp)
.LBB799:
.LBB800:
	.loc 2 679 10
	movswl	-10650(%rbp), %eax
	movswl	-10652(%rbp), %edx
	movswl	-10654(%rbp), %ecx
	movswl	-10656(%rbp), %esi
	movswl	-10658(%rbp), %edi
	movswl	-10660(%rbp), %r8d
	movswl	-10662(%rbp), %r9d
	movswl	-10664(%rbp), %r10d
	movw	%r10w, -10666(%rbp)
	movw	%r9w, -10668(%rbp)
	movw	%r8w, -10670(%rbp)
	movw	%di, -10672(%rbp)
	movw	%si, -10674(%rbp)
	movw	%cx, -10676(%rbp)
	movw	%dx, -10678(%rbp)
	movw	%ax, -10680(%rbp)
.LBB801:
.LBB802:
	.loc 2 611 41
	movzwl	-10680(%rbp), %eax
	movd	%eax, %xmm0
	movzwl	-10678(%rbp), %eax
	pinsrw	$1, %eax, %xmm0
	movdqa	%xmm0, %xmm1
	movzwl	-10676(%rbp), %eax
	movd	%eax, %xmm0
	movzwl	-10674(%rbp), %eax
	pinsrw	$1, %eax, %xmm0
	movdqa	%xmm0, %xmm4
	movzwl	-10672(%rbp), %eax
	movd	%eax, %xmm0
	movzwl	-10670(%rbp), %eax
	pinsrw	$1, %eax, %xmm0
	movdqa	%xmm0, %xmm2
	movzwl	-10668(%rbp), %eax
	movd	%eax, %xmm0
	movzwl	-10666(%rbp), %eax
	pinsrw	$1, %eax, %xmm0
	movdqa	%xmm0, %xmm3
	punpckldq	%xmm4, %xmm1
	movdqa	%xmm1, %xmm0
	movdqa	%xmm0, %xmm1
	punpckldq	%xmm3, %xmm2
	movdqa	%xmm2, %xmm0
	movdqa	%xmm0, %xmm2
	punpcklqdq	%xmm2, %xmm1
	movdqa	%xmm1, %xmm0
.LBE802:
.LBE801:
	.loc 2 679 10
	nop
.LBE800:
.LBE799:
	.loc 1 2544 21
	movaps	%xmm0, -64(%rbp)
	movw	$-6811, -10618(%rbp)
	movw	$-8034, -10620(%rbp)
	movw	$-6811, -10622(%rbp)
	movw	$-8034, -10624(%rbp)
	movw	$-6811, -10626(%rbp)
	movw	$-8034, -10628(%rbp)
	movw	$-6811, -10630(%rbp)
	movw	$-8034, -10632(%rbp)
.LBB803:
.LBB804:
	.loc 2 679 10
	movswl	-10618(%rbp), %eax
	movswl	-10620(%rbp), %edx
	movswl	-10622(%rbp), %ecx
	movswl	-10624(%rbp), %esi
	movswl	-10626(%rbp), %edi
	movswl	-10628(%rbp), %r8d
	movswl	-10630(%rbp), %r9d
	movswl	-10632(%rbp), %r10d
	movw	%r10w, -10634(%rbp)
	movw	%r9w, -10636(%rbp)
	movw	%r8w, -10638(%rbp)
	movw	%di, -10640(%rbp)
	movw	%si, -10642(%rbp)
	movw	%cx, -10644(%rbp)
	movw	%dx, -10646(%rbp)
	movw	%ax, -10648(%rbp)
.LBB805:
.LBB806:
	.loc 2 611 41
	movzwl	-10648(%rbp), %eax
	movd	%eax, %xmm0
	movzwl	-10646(%rbp), %eax
	pinsrw	$1, %eax, %xmm0
	movdqa	%xmm0, %xmm1
	movzwl	-10644(%rbp), %eax
	movd	%eax, %xmm0
	movzwl	-10642(%rbp), %eax
	pinsrw	$1, %eax, %xmm0
	movdqa	%xmm0, %xmm4
	movzwl	-10640(%rbp), %eax
	movd	%eax, %xmm0
	movzwl	-10638(%rbp), %eax
	pinsrw	$1, %eax, %xmm0
	movdqa	%xmm0, %xmm2
	movzwl	-10636(%rbp), %eax
	movd	%eax, %xmm0
	movzwl	-10634(%rbp), %eax
	pinsrw	$1, %eax, %xmm0
	movdqa	%xmm0, %xmm3
	punpckldq	%xmm4, %xmm1
	movdqa	%xmm1, %xmm0
	movdqa	%xmm0, %xmm1
	punpckldq	%xmm3, %xmm2
	movdqa	%xmm2, %xmm0
	movdqa	%xmm0, %xmm2
	punpcklqdq	%xmm2, %xmm1
	movdqa	%xmm1, %xmm0
.LBE806:
.LBE805:
	.loc 2 679 10
	nop
.LBE804:
.LBE803:
	.loc 1 2545 21
	movaps	%xmm0, -80(%rbp)
	movw	$-8034, -10586(%rbp)
	movw	$4552, -10588(%rbp)
	movw	$-8034, -10590(%rbp)
	movw	$4552, -10592(%rbp)
	movw	$-8034, -10594(%rbp)
	movw	$4552, -10596(%rbp)
	movw	$-8034, -10598(%rbp)
	movw	$4552, -10600(%rbp)
.LBB807:
.LBB808:
	.loc 2 679 10
	movswl	-10586(%rbp), %eax
	movswl	-10588(%rbp), %edx
	movswl	-10590(%rbp), %ecx
	movswl	-10592(%rbp), %esi
	movswl	-10594(%rbp), %edi
	movswl	-10596(%rbp), %r8d
	movswl	-10598(%rbp), %r9d
	movswl	-10600(%rbp), %r10d
	movw	%r10w, -10602(%rbp)
	movw	%r9w, -10604(%rbp)
	movw	%r8w, -10606(%rbp)
	movw	%di, -10608(%rbp)
	movw	%si, -10610(%rbp)
	movw	%cx, -10612(%rbp)
	movw	%dx, -10614(%rbp)
	movw	%ax, -10616(%rbp)
.LBB809:
.LBB810:
	.loc 2 611 41
	movzwl	-10616(%rbp), %eax
	movd	%eax, %xmm0
	movzwl	-10614(%rbp), %eax
	pinsrw	$1, %eax, %xmm0
	movdqa	%xmm0, %xmm1
	movzwl	-10612(%rbp), %eax
	movd	%eax, %xmm0
	movzwl	-10610(%rbp), %eax
	pinsrw	$1, %eax, %xmm0
	movdqa	%xmm0, %xmm4
	movzwl	-10608(%rbp), %eax
	movd	%eax, %xmm0
	movzwl	-10606(%rbp), %eax
	pinsrw	$1, %eax, %xmm0
	movdqa	%xmm0, %xmm2
	movzwl	-10604(%rbp), %eax
	movd	%eax, %xmm0
	movzwl	-10602(%rbp), %eax
	pinsrw	$1, %eax, %xmm0
	movdqa	%xmm0, %xmm3
	punpckldq	%xmm4, %xmm1
	movdqa	%xmm1, %xmm0
	movdqa	%xmm0, %xmm1
	punpckldq	%xmm3, %xmm2
	movdqa	%xmm2, %xmm0
	movdqa	%xmm0, %xmm2
	punpcklqdq	%xmm2, %xmm1
	movdqa	%xmm1, %xmm0
.LBE810:
.LBE809:
	.loc 2 679 10
	nop
.LBE808:
.LBE807:
	.loc 1 2546 21
	movaps	%xmm0, -96(%rbp)
	movw	$6813, -10554(%rbp)
	movw	$-1597, -10556(%rbp)
	movw	$6813, -10558(%rbp)
	movw	$-1597, -10560(%rbp)
	movw	$6813, -10562(%rbp)
	movw	$-1597, -10564(%rbp)
	movw	$6813, -10566(%rbp)
	movw	$-1597, -10568(%rbp)
.LBB811:
.LBB812:
	.loc 2 679 10
	movswl	-10554(%rbp), %eax
	movswl	-10556(%rbp), %edx
	movswl	-10558(%rbp), %ecx
	movswl	-10560(%rbp), %esi
	movswl	-10562(%rbp), %edi
	movswl	-10564(%rbp), %r8d
	movswl	-10566(%rbp), %r9d
	movswl	-10568(%rbp), %r10d
	movw	%r10w, -10570(%rbp)
	movw	%r9w, -10572(%rbp)
	movw	%r8w, -10574(%rbp)
	movw	%di, -10576(%rbp)
	movw	%si, -10578(%rbp)
	movw	%cx, -10580(%rbp)
	movw	%dx, -10582(%rbp)
	movw	%ax, -10584(%rbp)
.LBB813:
.LBB814:
	.loc 2 611 41
	movzwl	-10584(%rbp), %eax
	movd	%eax, %xmm0
	movzwl	-10582(%rbp), %eax
	pinsrw	$1, %eax, %xmm0
	movdqa	%xmm0, %xmm1
	movzwl	-10580(%rbp), %eax
	movd	%eax, %xmm0
	movzwl	-10578(%rbp), %eax
	pinsrw	$1, %eax, %xmm0
	movdqa	%xmm0, %xmm4
	movzwl	-10576(%rbp), %eax
	movd	%eax, %xmm0
	movzwl	-10574(%rbp), %eax
	pinsrw	$1, %eax, %xmm0
	movdqa	%xmm0, %xmm2
	movzwl	-10572(%rbp), %eax
	movd	%eax, %xmm0
	movzwl	-10570(%rbp), %eax
	pinsrw	$1, %eax, %xmm0
	movdqa	%xmm0, %xmm3
	punpckldq	%xmm4, %xmm1
	movdqa	%xmm1, %xmm0
	movdqa	%xmm0, %xmm1
	punpckldq	%xmm3, %xmm2
	movdqa	%xmm2, %xmm0
	movdqa	%xmm0, %xmm2
	punpcklqdq	%xmm2, %xmm1
	movdqa	%xmm1, %xmm0
.LBE814:
.LBE813:
	.loc 2 679 10
	nop
.LBE812:
.LBE811:
	.loc 1 2547 21
	movaps	%xmm0, -112(%rbp)
	movw	$-1597, -10522(%rbp)
	movw	$4552, -10524(%rbp)
	movw	$-1597, -10526(%rbp)
	movw	$4552, -10528(%rbp)
	movw	$-1597, -10530(%rbp)
	movw	$4552, -10532(%rbp)
	movw	$-1597, -10534(%rbp)
	movw	$4552, -10536(%rbp)
.LBB815:
.LBB816:
	.loc 2 679 10
	movswl	-10522(%rbp), %eax
	movswl	-10524(%rbp), %edx
	movswl	-10526(%rbp), %ecx
	movswl	-10528(%rbp), %esi
	movswl	-10530(%rbp), %edi
	movswl	-10532(%rbp), %r8d
	movswl	-10534(%rbp), %r9d
	movswl	-10536(%rbp), %r10d
	movw	%r10w, -10538(%rbp)
	movw	%r9w, -10540(%rbp)
	movw	%r8w, -10542(%rbp)
	movw	%di, -10544(%rbp)
	movw	%si, -10546(%rbp)
	movw	%cx, -10548(%rbp)
	movw	%dx, -10550(%rbp)
	movw	%ax, -10552(%rbp)
.LBB817:
.LBB818:
	.loc 2 611 41
	movzwl	-10552(%rbp), %eax
	movd	%eax, %xmm0
	movzwl	-10550(%rbp), %eax
	pinsrw	$1, %eax, %xmm0
	movdqa	%xmm0, %xmm1
	movzwl	-10548(%rbp), %eax
	movd	%eax, %xmm0
	movzwl	-10546(%rbp), %eax
	pinsrw	$1, %eax, %xmm0
	movdqa	%xmm0, %xmm4
	movzwl	-10544(%rbp), %eax
	movd	%eax, %xmm0
	movzwl	-10542(%rbp), %eax
	pinsrw	$1, %eax, %xmm0
	movdqa	%xmm0, %xmm2
	movzwl	-10540(%rbp), %eax
	movd	%eax, %xmm0
	movzwl	-10538(%rbp), %eax
	pinsrw	$1, %eax, %xmm0
	movdqa	%xmm0, %xmm3
	punpckldq	%xmm4, %xmm1
	movdqa	%xmm1, %xmm0
	movdqa	%xmm0, %xmm1
	punpckldq	%xmm3, %xmm2
	movdqa	%xmm2, %xmm0
	movdqa	%xmm0, %xmm2
	punpcklqdq	%xmm2, %xmm1
	movdqa	%xmm1, %xmm0
.LBE818:
.LBE817:
	.loc 2 679 10
	nop
.LBE816:
.LBE815:
	.loc 1 2548 21
	movaps	%xmm0, -128(%rbp)
	movl	$512, -10504(%rbp)
	movl	-10504(%rbp), %eax
	movl	%eax, -10508(%rbp)
	movl	-10504(%rbp), %eax
	movl	%eax, -10512(%rbp)
	movl	-10504(%rbp), %eax
	movl	%eax, -10516(%rbp)
	movl	-10504(%rbp), %eax
	movl	%eax, -10520(%rbp)
.LBB819:
.LBB820:
.LBB821:
.LBB822:
	.loc 2 604 41
	movl	-10508(%rbp), %eax
	movl	-10512(%rbp), %edx
	movd	%edx, %xmm1
	movd	%eax, %xmm5
	punpckldq	%xmm5, %xmm1
	movl	-10516(%rbp), %eax
	movl	-10520(%rbp), %edx
	movd	%edx, %xmm0
	movd	%eax, %xmm6
	punpckldq	%xmm6, %xmm0
	punpcklqdq	%xmm1, %xmm0
.LBE822:
.LBE821:
	.loc 2 644 10
	nop
.LBE820:
.LBE819:
	.loc 1 2551 21
	movaps	%xmm0, -144(%rbp)
	movl	$16842752, -10484(%rbp)
	movl	-10484(%rbp), %eax
	movl	%eax, -10488(%rbp)
	movl	-10484(%rbp), %eax
	movl	%eax, -10492(%rbp)
	movl	-10484(%rbp), %eax
	movl	%eax, -10496(%rbp)
	movl	-10484(%rbp), %eax
	movl	%eax, -10500(%rbp)
.LBB823:
.LBB824:
.LBB825:
.LBB826:
	.loc 2 604 41
	movl	-10488(%rbp), %eax
	movl	-10492(%rbp), %edx
	movd	%edx, %xmm1
	movd	%eax, %xmm7
	punpckldq	%xmm7, %xmm1
	movl	-10496(%rbp), %eax
	movl	-10500(%rbp), %edx
	movd	%edx, %xmm0
	movd	%eax, %xmm5
	punpckldq	%xmm5, %xmm0
	punpcklqdq	%xmm1, %xmm0
.LBE826:
.LBE825:
	.loc 2 644 10
	nop
.LBE824:
.LBE823:
	.loc 1 2552 21
	movaps	%xmm0, -160(%rbp)
	movq	-10936(%rbp), %rax
	movq	%rax, -10480(%rbp)
.LBB827:
.LBB828:
	.loc 2 697 10
	movq	-10480(%rbp), %rax
	movdqa	(%rax), %xmm0
.LBE828:
.LBE827:
	.loc 1 2555 11
	movaps	%xmm0, -176(%rbp)
	.loc 1 2556 50
	movq	-10936(%rbp), %rax
	addq	$16, %rax
	movq	%rax, -10472(%rbp)
.LBB829:
.LBB830:
	.loc 2 697 10
	movq	-10472(%rbp), %rax
	movdqa	(%rax), %xmm0
.LBE830:
.LBE829:
	.loc 1 2556 11
	movaps	%xmm0, -192(%rbp)
	.loc 1 2557 50
	movq	-10936(%rbp), %rax
	addq	$32, %rax
	movq	%rax, -10464(%rbp)
.LBB831:
.LBB832:
	.loc 2 697 10
	movq	-10464(%rbp), %rax
	movdqa	(%rax), %xmm0
.LBE832:
.LBE831:
	.loc 1 2557 11
	movaps	%xmm0, -208(%rbp)
	.loc 1 2558 50
	movq	-10936(%rbp), %rax
	addq	$48, %rax
	movq	%rax, -10456(%rbp)
.LBB833:
.LBB834:
	.loc 2 697 10
	movq	-10456(%rbp), %rax
	movdqa	(%rax), %xmm0
.LBE834:
.LBE833:
	.loc 1 2558 11
	movaps	%xmm0, -224(%rbp)
	.loc 1 2559 50
	movq	-10936(%rbp), %rax
	addq	$64, %rax
	movq	%rax, -10448(%rbp)
.LBB835:
.LBB836:
	.loc 2 697 10
	movq	-10448(%rbp), %rax
	movdqa	(%rax), %xmm0
.LBE836:
.LBE835:
	.loc 1 2559 11
	movaps	%xmm0, -240(%rbp)
	.loc 1 2560 50
	movq	-10936(%rbp), %rax
	addq	$80, %rax
	movq	%rax, -10440(%rbp)
.LBB837:
.LBB838:
	.loc 2 697 10
	movq	-10440(%rbp), %rax
	movdqa	(%rax), %xmm0
.LBE838:
.LBE837:
	.loc 1 2560 11
	movaps	%xmm0, -256(%rbp)
	.loc 1 2561 50
	movq	-10936(%rbp), %rax
	addq	$96, %rax
	movq	%rax, -10432(%rbp)
.LBB839:
.LBB840:
	.loc 2 697 10
	movq	-10432(%rbp), %rax
	movdqa	(%rax), %xmm0
.LBE840:
.LBE839:
	.loc 1 2561 11
	movaps	%xmm0, -272(%rbp)
	.loc 1 2562 50
	movq	-10936(%rbp), %rax
	addq	$112, %rax
	movq	%rax, -10424(%rbp)
.LBB841:
.LBB842:
	.loc 2 697 10
	movq	-10424(%rbp), %rax
	movdqa	(%rax), %xmm0
.LBE842:
.LBE841:
	.loc 1 2562 11
	movaps	%xmm0, -288(%rbp)
	movdqa	-208(%rbp), %xmm0
	movaps	%xmm0, -10400(%rbp)
	movdqa	-272(%rbp), %xmm0
	movaps	%xmm0, -10416(%rbp)
.LBB843:
.LBB844:
.LBB845:
	.loc 2 1012 19
	movdqa	-10416(%rbp), %xmm1
	movdqa	-10400(%rbp), %xmm0
	punpcklwd	%xmm1, %xmm0
.LBE845:
.LBE844:
	.loc 1 2565 4
	movaps	%xmm0, -304(%rbp)
	movdqa	-208(%rbp), %xmm0
	movaps	%xmm0, -10368(%rbp)
	movdqa	-272(%rbp), %xmm0
	movaps	%xmm0, -10384(%rbp)
.LBB846:
.LBB847:
	.loc 2 988 19
	movdqa	-10384(%rbp), %xmm1
	movdqa	-10368(%rbp), %xmm0
	punpckhwd	%xmm1, %xmm0
.LBE847:
.LBE846:
	.loc 1 2565 4
	movaps	%xmm0, -320(%rbp)
	movdqa	-304(%rbp), %xmm0
	movaps	%xmm0, -10336(%rbp)
	movdqa	-16(%rbp), %xmm0
	movaps	%xmm0, -10352(%rbp)
.LBB848:
.LBB849:
	.loc 2 1126 19
	movdqa	-10352(%rbp), %xmm0
	movdqa	-10336(%rbp), %xmm1
	pmaddwd	%xmm1, %xmm0
.LBE849:
.LBE848:
	.loc 1 2565 4
	movaps	%xmm0, -336(%rbp)
	movdqa	-320(%rbp), %xmm0
	movaps	%xmm0, -10304(%rbp)
	movdqa	-16(%rbp), %xmm0
	movaps	%xmm0, -10320(%rbp)
.LBB850:
.LBB851:
	.loc 2 1126 19
	movdqa	-10320(%rbp), %xmm0
	movdqa	-10304(%rbp), %xmm1
	pmaddwd	%xmm1, %xmm0
.LBE851:
.LBE850:
	.loc 1 2565 4
	movaps	%xmm0, -352(%rbp)
	movdqa	-304(%rbp), %xmm0
	movaps	%xmm0, -10272(%rbp)
	movdqa	-32(%rbp), %xmm0
	movaps	%xmm0, -10288(%rbp)
.LBB852:
.LBB853:
	.loc 2 1126 19
	movdqa	-10288(%rbp), %xmm0
	movdqa	-10272(%rbp), %xmm1
	pmaddwd	%xmm1, %xmm0
.LBE853:
.LBE852:
	.loc 1 2565 4
	movaps	%xmm0, -368(%rbp)
	movdqa	-320(%rbp), %xmm0
	movaps	%xmm0, -10240(%rbp)
	movdqa	-32(%rbp), %xmm0
	movaps	%xmm0, -10256(%rbp)
.LBB854:
.LBB855:
	.loc 2 1126 19
	movdqa	-10256(%rbp), %xmm0
	movdqa	-10240(%rbp), %xmm1
	pmaddwd	%xmm1, %xmm0
.LBE855:
.LBE854:
	.loc 1 2565 4
	movaps	%xmm0, -384(%rbp)
	movdqa	-176(%rbp), %xmm0
	movaps	%xmm0, -10208(%rbp)
	movdqa	-240(%rbp), %xmm0
	movaps	%xmm0, -10224(%rbp)
.LBB856:
.LBB857:
	.loc 2 1036 21
	movdqa	-10208(%rbp), %xmm1
	.loc 2 1036 35
	movdqa	-10224(%rbp), %xmm0
	.loc 2 1036 33
	paddw	%xmm1, %xmm0
.LBE857:
.LBE856:
	.loc 1 2565 4
	movaps	%xmm0, -400(%rbp)
	movdqa	-176(%rbp), %xmm0
	movaps	%xmm0, -10176(%rbp)
	movdqa	-240(%rbp), %xmm0
	movaps	%xmm0, -10192(%rbp)
.LBB858:
.LBB859:
	.loc 2 1084 21
	movdqa	-10176(%rbp), %xmm0
	.loc 2 1084 35
	movdqa	-10192(%rbp), %xmm1
	.loc 2 1084 33
	psubw	%xmm1, %xmm0
.LBE859:
.LBE858:
	.loc 1 2565 4
	movaps	%xmm0, -416(%rbp)
.LBB860:
.LBB861:
	.loc 2 772 24
	pxor	%xmm0, %xmm0
	movaps	%xmm0, -10144(%rbp)
	movdqa	-400(%rbp), %xmm0
	movaps	%xmm0, -10160(%rbp)
.LBE861:
.LBE860:
.LBB862:
.LBB863:
	.loc 2 1012 19
	movdqa	-10160(%rbp), %xmm1
	movdqa	-10144(%rbp), %xmm0
	punpcklwd	%xmm1, %xmm0
	movaps	%xmm0, -10112(%rbp)
	movl	$4, -10116(%rbp)
.LBE863:
.LBE862:
.LBB864:
.LBB865:
	.loc 2 1180 19
	movdqa	-10112(%rbp), %xmm1
	movd	-10116(%rbp), %xmm0
	psrad	%xmm0, %xmm1
	.loc 2 1180 10
	movdqa	%xmm1, %xmm0
.LBE865:
.LBE864:
	.loc 1 2565 4
	movaps	%xmm0, -432(%rbp)
.LBB866:
.LBB867:
	.loc 2 772 24
	pxor	%xmm0, %xmm0
	movaps	%xmm0, -10080(%rbp)
	movdqa	-400(%rbp), %xmm0
	movaps	%xmm0, -10096(%rbp)
.LBE867:
.LBE866:
.LBB868:
.LBB869:
	.loc 2 988 19
	movdqa	-10096(%rbp), %xmm1
	movdqa	-10080(%rbp), %xmm0
	punpckhwd	%xmm1, %xmm0
	movaps	%xmm0, -10048(%rbp)
	movl	$4, -10052(%rbp)
.LBE869:
.LBE868:
.LBB870:
.LBB871:
	.loc 2 1180 19
	movdqa	-10048(%rbp), %xmm1
	movd	-10052(%rbp), %xmm0
	psrad	%xmm0, %xmm1
	.loc 2 1180 10
	movdqa	%xmm1, %xmm0
.LBE871:
.LBE870:
	.loc 1 2565 4
	movaps	%xmm0, -448(%rbp)
.LBB872:
.LBB873:
	.loc 2 772 24
	pxor	%xmm0, %xmm0
	movaps	%xmm0, -10016(%rbp)
	movdqa	-416(%rbp), %xmm0
	movaps	%xmm0, -10032(%rbp)
.LBE873:
.LBE872:
.LBB874:
.LBB875:
	.loc 2 1012 19
	movdqa	-10032(%rbp), %xmm1
	movdqa	-10016(%rbp), %xmm0
	punpcklwd	%xmm1, %xmm0
	movaps	%xmm0, -9984(%rbp)
	movl	$4, -9988(%rbp)
.LBE875:
.LBE874:
.LBB876:
.LBB877:
	.loc 2 1180 19
	movdqa	-9984(%rbp), %xmm1
	movd	-9988(%rbp), %xmm0
	psrad	%xmm0, %xmm1
	.loc 2 1180 10
	movdqa	%xmm1, %xmm0
.LBE877:
.LBE876:
	.loc 1 2565 4
	movaps	%xmm0, -464(%rbp)
.LBB878:
.LBB879:
	.loc 2 772 24
	pxor	%xmm0, %xmm0
	movaps	%xmm0, -9952(%rbp)
	movdqa	-416(%rbp), %xmm0
	movaps	%xmm0, -9968(%rbp)
.LBE879:
.LBE878:
.LBB880:
.LBB881:
	.loc 2 988 19
	movdqa	-9968(%rbp), %xmm1
	movdqa	-9952(%rbp), %xmm0
	punpckhwd	%xmm1, %xmm0
	movaps	%xmm0, -9920(%rbp)
	movl	$4, -9924(%rbp)
.LBE881:
.LBE880:
.LBB882:
.LBB883:
	.loc 2 1180 19
	movdqa	-9920(%rbp), %xmm1
	movd	-9924(%rbp), %xmm0
	psrad	%xmm0, %xmm1
	.loc 2 1180 10
	movdqa	%xmm1, %xmm0
.LBE883:
.LBE882:
	.loc 1 2565 4
	movaps	%xmm0, -480(%rbp)
	movdqa	-432(%rbp), %xmm0
	movaps	%xmm0, -9888(%rbp)
	movdqa	-368(%rbp), %xmm0
	movaps	%xmm0, -9904(%rbp)
.LBB884:
.LBB885:
	.loc 2 1042 21
	movdqa	-9888(%rbp), %xmm1
	.loc 2 1042 35
	movdqa	-9904(%rbp), %xmm0
	.loc 2 1042 33
	paddd	%xmm1, %xmm0
.LBE885:
.LBE884:
	.loc 1 2565 4
	movaps	%xmm0, -496(%rbp)
	movdqa	-448(%rbp), %xmm0
	movaps	%xmm0, -9856(%rbp)
	movdqa	-384(%rbp), %xmm0
	movaps	%xmm0, -9872(%rbp)
.LBB886:
.LBB887:
	.loc 2 1042 21
	movdqa	-9856(%rbp), %xmm1
	.loc 2 1042 35
	movdqa	-9872(%rbp), %xmm0
	.loc 2 1042 33
	paddd	%xmm1, %xmm0
.LBE887:
.LBE886:
	.loc 1 2565 4
	movaps	%xmm0, -512(%rbp)
	movdqa	-432(%rbp), %xmm0
	movaps	%xmm0, -9824(%rbp)
	movdqa	-368(%rbp), %xmm0
	movaps	%xmm0, -9840(%rbp)
.LBB888:
.LBB889:
	.loc 2 1090 21
	movdqa	-9824(%rbp), %xmm0
	.loc 2 1090 35
	movdqa	-9840(%rbp), %xmm1
	.loc 2 1090 33
	psubd	%xmm1, %xmm0
.LBE889:
.LBE888:
	.loc 1 2565 4
	movaps	%xmm0, -528(%rbp)
	movdqa	-448(%rbp), %xmm0
	movaps	%xmm0, -9792(%rbp)
	movdqa	-384(%rbp), %xmm0
	movaps	%xmm0, -9808(%rbp)
.LBB890:
.LBB891:
	.loc 2 1090 21
	movdqa	-9792(%rbp), %xmm0
	.loc 2 1090 35
	movdqa	-9808(%rbp), %xmm1
	.loc 2 1090 33
	psubd	%xmm1, %xmm0
.LBE891:
.LBE890:
	.loc 1 2565 4
	movaps	%xmm0, -544(%rbp)
	movdqa	-464(%rbp), %xmm0
	movaps	%xmm0, -9760(%rbp)
	movdqa	-336(%rbp), %xmm0
	movaps	%xmm0, -9776(%rbp)
.LBB892:
.LBB893:
	.loc 2 1042 21
	movdqa	-9760(%rbp), %xmm1
	.loc 2 1042 35
	movdqa	-9776(%rbp), %xmm0
	.loc 2 1042 33
	paddd	%xmm1, %xmm0
.LBE893:
.LBE892:
	.loc 1 2565 4
	movaps	%xmm0, -560(%rbp)
	movdqa	-480(%rbp), %xmm0
	movaps	%xmm0, -9728(%rbp)
	movdqa	-352(%rbp), %xmm0
	movaps	%xmm0, -9744(%rbp)
.LBB894:
.LBB895:
	.loc 2 1042 21
	movdqa	-9728(%rbp), %xmm1
	.loc 2 1042 35
	movdqa	-9744(%rbp), %xmm0
	.loc 2 1042 33
	paddd	%xmm1, %xmm0
.LBE895:
.LBE894:
	.loc 1 2565 4
	movaps	%xmm0, -576(%rbp)
	movdqa	-464(%rbp), %xmm0
	movaps	%xmm0, -9696(%rbp)
	movdqa	-336(%rbp), %xmm0
	movaps	%xmm0, -9712(%rbp)
.LBB896:
.LBB897:
	.loc 2 1090 21
	movdqa	-9696(%rbp), %xmm0
	.loc 2 1090 35
	movdqa	-9712(%rbp), %xmm1
	.loc 2 1090 33
	psubd	%xmm1, %xmm0
.LBE897:
.LBE896:
	.loc 1 2565 4
	movaps	%xmm0, -592(%rbp)
	movdqa	-480(%rbp), %xmm0
	movaps	%xmm0, -9664(%rbp)
	movdqa	-352(%rbp), %xmm0
	movaps	%xmm0, -9680(%rbp)
.LBB898:
.LBB899:
	.loc 2 1090 21
	movdqa	-9664(%rbp), %xmm0
	.loc 2 1090 35
	movdqa	-9680(%rbp), %xmm1
	.loc 2 1090 33
	psubd	%xmm1, %xmm0
.LBE899:
.LBE898:
	.loc 1 2565 4
	movaps	%xmm0, -608(%rbp)
	movdqa	-288(%rbp), %xmm0
	movaps	%xmm0, -9632(%rbp)
	movdqa	-224(%rbp), %xmm0
	movaps	%xmm0, -9648(%rbp)
.LBB900:
.LBB901:
	.loc 2 1012 19
	movdqa	-9648(%rbp), %xmm1
	movdqa	-9632(%rbp), %xmm0
	punpcklwd	%xmm1, %xmm0
.LBE901:
.LBE900:
	.loc 1 2565 4
	movaps	%xmm0, -624(%rbp)
	movdqa	-288(%rbp), %xmm0
	movaps	%xmm0, -9600(%rbp)
	movdqa	-224(%rbp), %xmm0
	movaps	%xmm0, -9616(%rbp)
.LBB902:
.LBB903:
	.loc 2 988 19
	movdqa	-9616(%rbp), %xmm1
	movdqa	-9600(%rbp), %xmm0
	punpckhwd	%xmm1, %xmm0
.LBE903:
.LBE902:
	.loc 1 2565 4
	movaps	%xmm0, -640(%rbp)
	movdqa	-624(%rbp), %xmm0
	movaps	%xmm0, -9568(%rbp)
	movdqa	-80(%rbp), %xmm0
	movaps	%xmm0, -9584(%rbp)
.LBB904:
.LBB905:
	.loc 2 1126 19
	movdqa	-9584(%rbp), %xmm0
	movdqa	-9568(%rbp), %xmm1
	pmaddwd	%xmm1, %xmm0
.LBE905:
.LBE904:
	.loc 1 2565 4
	movaps	%xmm0, -656(%rbp)
	movdqa	-640(%rbp), %xmm0
	movaps	%xmm0, -9536(%rbp)
	movdqa	-80(%rbp), %xmm0
	movaps	%xmm0, -9552(%rbp)
.LBB906:
.LBB907:
	.loc 2 1126 19
	movdqa	-9552(%rbp), %xmm0
	movdqa	-9536(%rbp), %xmm1
	pmaddwd	%xmm1, %xmm0
.LBE907:
.LBE906:
	.loc 1 2565 4
	movaps	%xmm0, -672(%rbp)
	movdqa	-624(%rbp), %xmm0
	movaps	%xmm0, -9504(%rbp)
	movdqa	-96(%rbp), %xmm0
	movaps	%xmm0, -9520(%rbp)
.LBB908:
.LBB909:
	.loc 2 1126 19
	movdqa	-9520(%rbp), %xmm0
	movdqa	-9504(%rbp), %xmm1
	pmaddwd	%xmm1, %xmm0
.LBE909:
.LBE908:
	.loc 1 2565 4
	movaps	%xmm0, -688(%rbp)
	movdqa	-640(%rbp), %xmm0
	movaps	%xmm0, -9472(%rbp)
	movdqa	-96(%rbp), %xmm0
	movaps	%xmm0, -9488(%rbp)
.LBB910:
.LBB911:
	.loc 2 1126 19
	movdqa	-9488(%rbp), %xmm0
	movdqa	-9472(%rbp), %xmm1
	pmaddwd	%xmm1, %xmm0
.LBE911:
.LBE910:
	.loc 1 2565 4
	movaps	%xmm0, -704(%rbp)
	movdqa	-256(%rbp), %xmm0
	movaps	%xmm0, -9440(%rbp)
	movdqa	-192(%rbp), %xmm0
	movaps	%xmm0, -9456(%rbp)
.LBB912:
.LBB913:
	.loc 2 1012 19
	movdqa	-9456(%rbp), %xmm1
	movdqa	-9440(%rbp), %xmm0
	punpcklwd	%xmm1, %xmm0
.LBE913:
.LBE912:
	.loc 1 2565 4
	movaps	%xmm0, -720(%rbp)
	movdqa	-256(%rbp), %xmm0
	movaps	%xmm0, -9408(%rbp)
	movdqa	-192(%rbp), %xmm0
	movaps	%xmm0, -9424(%rbp)
.LBB914:
.LBB915:
	.loc 2 988 19
	movdqa	-9424(%rbp), %xmm1
	movdqa	-9408(%rbp), %xmm0
	punpckhwd	%xmm1, %xmm0
.LBE915:
.LBE914:
	.loc 1 2565 4
	movaps	%xmm0, -736(%rbp)
	movdqa	-720(%rbp), %xmm0
	movaps	%xmm0, -9376(%rbp)
	movdqa	-112(%rbp), %xmm0
	movaps	%xmm0, -9392(%rbp)
.LBB916:
.LBB917:
	.loc 2 1126 19
	movdqa	-9392(%rbp), %xmm0
	movdqa	-9376(%rbp), %xmm1
	pmaddwd	%xmm1, %xmm0
.LBE917:
.LBE916:
	.loc 1 2565 4
	movaps	%xmm0, -752(%rbp)
	movdqa	-736(%rbp), %xmm0
	movaps	%xmm0, -9344(%rbp)
	movdqa	-112(%rbp), %xmm0
	movaps	%xmm0, -9360(%rbp)
.LBB918:
.LBB919:
	.loc 2 1126 19
	movdqa	-9360(%rbp), %xmm0
	movdqa	-9344(%rbp), %xmm1
	pmaddwd	%xmm1, %xmm0
.LBE919:
.LBE918:
	.loc 1 2565 4
	movaps	%xmm0, -768(%rbp)
	movdqa	-720(%rbp), %xmm0
	movaps	%xmm0, -9312(%rbp)
	movdqa	-128(%rbp), %xmm0
	movaps	%xmm0, -9328(%rbp)
.LBB920:
.LBB921:
	.loc 2 1126 19
	movdqa	-9328(%rbp), %xmm0
	movdqa	-9312(%rbp), %xmm1
	pmaddwd	%xmm1, %xmm0
.LBE921:
.LBE920:
	.loc 1 2565 4
	movaps	%xmm0, -784(%rbp)
	movdqa	-736(%rbp), %xmm0
	movaps	%xmm0, -9280(%rbp)
	movdqa	-128(%rbp), %xmm0
	movaps	%xmm0, -9296(%rbp)
.LBB922:
.LBB923:
	.loc 2 1126 19
	movdqa	-9296(%rbp), %xmm0
	movdqa	-9280(%rbp), %xmm1
	pmaddwd	%xmm1, %xmm0
.LBE923:
.LBE922:
	.loc 1 2565 4
	movaps	%xmm0, -800(%rbp)
	movdqa	-192(%rbp), %xmm0
	movaps	%xmm0, -9248(%rbp)
	movdqa	-288(%rbp), %xmm0
	movaps	%xmm0, -9264(%rbp)
.LBB924:
.LBB925:
	.loc 2 1036 21
	movdqa	-9248(%rbp), %xmm1
	.loc 2 1036 35
	movdqa	-9264(%rbp), %xmm0
	.loc 2 1036 33
	paddw	%xmm1, %xmm0
.LBE925:
.LBE924:
	.loc 1 2565 4
	movaps	%xmm0, -816(%rbp)
	movdqa	-224(%rbp), %xmm0
	movaps	%xmm0, -9216(%rbp)
	movdqa	-256(%rbp), %xmm0
	movaps	%xmm0, -9232(%rbp)
.LBB926:
.LBB927:
	.loc 2 1036 21
	movdqa	-9216(%rbp), %xmm1
	.loc 2 1036 35
	movdqa	-9232(%rbp), %xmm0
	.loc 2 1036 33
	paddw	%xmm1, %xmm0
.LBE927:
.LBE926:
	.loc 1 2565 4
	movaps	%xmm0, -832(%rbp)
	movdqa	-816(%rbp), %xmm0
	movaps	%xmm0, -9184(%rbp)
	movdqa	-832(%rbp), %xmm0
	movaps	%xmm0, -9200(%rbp)
.LBB928:
.LBB929:
	.loc 2 1012 19
	movdqa	-9200(%rbp), %xmm1
	movdqa	-9184(%rbp), %xmm0
	punpcklwd	%xmm1, %xmm0
.LBE929:
.LBE928:
	.loc 1 2565 4
	movaps	%xmm0, -848(%rbp)
	movdqa	-816(%rbp), %xmm0
	movaps	%xmm0, -9152(%rbp)
	movdqa	-832(%rbp), %xmm0
	movaps	%xmm0, -9168(%rbp)
.LBB930:
.LBB931:
	.loc 2 988 19
	movdqa	-9168(%rbp), %xmm1
	movdqa	-9152(%rbp), %xmm0
	punpckhwd	%xmm1, %xmm0
.LBE931:
.LBE930:
	.loc 1 2565 4
	movaps	%xmm0, -864(%rbp)
	movdqa	-848(%rbp), %xmm0
	movaps	%xmm0, -9120(%rbp)
	movdqa	-48(%rbp), %xmm0
	movaps	%xmm0, -9136(%rbp)
.LBB932:
.LBB933:
	.loc 2 1126 19
	movdqa	-9136(%rbp), %xmm0
	movdqa	-9120(%rbp), %xmm1
	pmaddwd	%xmm1, %xmm0
.LBE933:
.LBE932:
	.loc 1 2565 4
	movaps	%xmm0, -880(%rbp)
	movdqa	-864(%rbp), %xmm0
	movaps	%xmm0, -9088(%rbp)
	movdqa	-48(%rbp), %xmm0
	movaps	%xmm0, -9104(%rbp)
.LBB934:
.LBB935:
	.loc 2 1126 19
	movdqa	-9104(%rbp), %xmm0
	movdqa	-9088(%rbp), %xmm1
	pmaddwd	%xmm1, %xmm0
.LBE935:
.LBE934:
	.loc 1 2565 4
	movaps	%xmm0, -896(%rbp)
	movdqa	-848(%rbp), %xmm0
	movaps	%xmm0, -9056(%rbp)
	movdqa	-64(%rbp), %xmm0
	movaps	%xmm0, -9072(%rbp)
.LBB936:
.LBB937:
	.loc 2 1126 19
	movdqa	-9072(%rbp), %xmm0
	movdqa	-9056(%rbp), %xmm1
	pmaddwd	%xmm1, %xmm0
.LBE937:
.LBE936:
	.loc 1 2565 4
	movaps	%xmm0, -912(%rbp)
	movdqa	-864(%rbp), %xmm0
	movaps	%xmm0, -9024(%rbp)
	movdqa	-64(%rbp), %xmm0
	movaps	%xmm0, -9040(%rbp)
.LBB938:
.LBB939:
	.loc 2 1126 19
	movdqa	-9040(%rbp), %xmm0
	movdqa	-9024(%rbp), %xmm1
	pmaddwd	%xmm1, %xmm0
.LBE939:
.LBE938:
	.loc 1 2565 4
	movaps	%xmm0, -928(%rbp)
	movdqa	-656(%rbp), %xmm0
	movaps	%xmm0, -8992(%rbp)
	movdqa	-880(%rbp), %xmm0
	movaps	%xmm0, -9008(%rbp)
.LBB940:
.LBB941:
	.loc 2 1042 21
	movdqa	-8992(%rbp), %xmm1
	.loc 2 1042 35
	movdqa	-9008(%rbp), %xmm0
	.loc 2 1042 33
	paddd	%xmm1, %xmm0
.LBE941:
.LBE940:
	.loc 1 2565 4
	movaps	%xmm0, -944(%rbp)
	movdqa	-672(%rbp), %xmm0
	movaps	%xmm0, -8960(%rbp)
	movdqa	-896(%rbp), %xmm0
	movaps	%xmm0, -8976(%rbp)
.LBB942:
.LBB943:
	.loc 2 1042 21
	movdqa	-8960(%rbp), %xmm1
	.loc 2 1042 35
	movdqa	-8976(%rbp), %xmm0
	.loc 2 1042 33
	paddd	%xmm1, %xmm0
.LBE943:
.LBE942:
	.loc 1 2565 4
	movaps	%xmm0, -960(%rbp)
	movdqa	-752(%rbp), %xmm0
	movaps	%xmm0, -8928(%rbp)
	movdqa	-912(%rbp), %xmm0
	movaps	%xmm0, -8944(%rbp)
.LBB944:
.LBB945:
	.loc 2 1042 21
	movdqa	-8928(%rbp), %xmm1
	.loc 2 1042 35
	movdqa	-8944(%rbp), %xmm0
	.loc 2 1042 33
	paddd	%xmm1, %xmm0
.LBE945:
.LBE944:
	.loc 1 2565 4
	movaps	%xmm0, -976(%rbp)
	movdqa	-768(%rbp), %xmm0
	movaps	%xmm0, -8896(%rbp)
	movdqa	-928(%rbp), %xmm0
	movaps	%xmm0, -8912(%rbp)
.LBB946:
.LBB947:
	.loc 2 1042 21
	movdqa	-8896(%rbp), %xmm1
	.loc 2 1042 35
	movdqa	-8912(%rbp), %xmm0
	.loc 2 1042 33
	paddd	%xmm1, %xmm0
.LBE947:
.LBE946:
	.loc 1 2565 4
	movaps	%xmm0, -992(%rbp)
	movdqa	-688(%rbp), %xmm0
	movaps	%xmm0, -8864(%rbp)
	movdqa	-912(%rbp), %xmm0
	movaps	%xmm0, -8880(%rbp)
.LBB948:
.LBB949:
	.loc 2 1042 21
	movdqa	-8864(%rbp), %xmm1
	.loc 2 1042 35
	movdqa	-8880(%rbp), %xmm0
	.loc 2 1042 33
	paddd	%xmm1, %xmm0
.LBE949:
.LBE948:
	.loc 1 2565 4
	movaps	%xmm0, -1008(%rbp)
	movdqa	-704(%rbp), %xmm0
	movaps	%xmm0, -8832(%rbp)
	movdqa	-928(%rbp), %xmm0
	movaps	%xmm0, -8848(%rbp)
.LBB950:
.LBB951:
	.loc 2 1042 21
	movdqa	-8832(%rbp), %xmm1
	.loc 2 1042 35
	movdqa	-8848(%rbp), %xmm0
	.loc 2 1042 33
	paddd	%xmm1, %xmm0
.LBE951:
.LBE950:
	.loc 1 2565 4
	movaps	%xmm0, -1024(%rbp)
	movdqa	-784(%rbp), %xmm0
	movaps	%xmm0, -8800(%rbp)
	movdqa	-880(%rbp), %xmm0
	movaps	%xmm0, -8816(%rbp)
.LBB952:
.LBB953:
	.loc 2 1042 21
	movdqa	-8800(%rbp), %xmm1
	.loc 2 1042 35
	movdqa	-8816(%rbp), %xmm0
	.loc 2 1042 33
	paddd	%xmm1, %xmm0
.LBE953:
.LBE952:
	.loc 1 2565 4
	movaps	%xmm0, -1040(%rbp)
	movdqa	-800(%rbp), %xmm0
	movaps	%xmm0, -8768(%rbp)
	movdqa	-896(%rbp), %xmm0
	movaps	%xmm0, -8784(%rbp)
.LBB954:
.LBB955:
	.loc 2 1042 21
	movdqa	-8768(%rbp), %xmm1
	.loc 2 1042 35
	movdqa	-8784(%rbp), %xmm0
	.loc 2 1042 33
	paddd	%xmm1, %xmm0
.LBE955:
.LBE954:
	.loc 1 2565 4
	movaps	%xmm0, -1056(%rbp)
	movdqa	-496(%rbp), %xmm0
	movaps	%xmm0, -8736(%rbp)
	movdqa	-144(%rbp), %xmm0
	movaps	%xmm0, -8752(%rbp)
.LBB956:
.LBB957:
.LBB958:
	.loc 2 1042 21
	movdqa	-8736(%rbp), %xmm1
	.loc 2 1042 35
	movdqa	-8752(%rbp), %xmm0
	.loc 2 1042 33
	paddd	%xmm1, %xmm0
.LBE958:
.LBE957:
	.loc 1 2565 4
	movaps	%xmm0, -1072(%rbp)
	movdqa	-512(%rbp), %xmm0
	movaps	%xmm0, -8704(%rbp)
	movdqa	-144(%rbp), %xmm0
	movaps	%xmm0, -8720(%rbp)
.LBB959:
.LBB960:
	.loc 2 1042 21
	movdqa	-8704(%rbp), %xmm1
	.loc 2 1042 35
	movdqa	-8720(%rbp), %xmm0
	.loc 2 1042 33
	paddd	%xmm1, %xmm0
.LBE960:
.LBE959:
	.loc 1 2565 4
	movaps	%xmm0, -1088(%rbp)
	movdqa	-1072(%rbp), %xmm0
	movaps	%xmm0, -8672(%rbp)
	movdqa	-1040(%rbp), %xmm0
	movaps	%xmm0, -8688(%rbp)
.LBB961:
.LBB962:
	.loc 2 1042 21
	movdqa	-8672(%rbp), %xmm1
	.loc 2 1042 35
	movdqa	-8688(%rbp), %xmm0
	.loc 2 1042 33
	paddd	%xmm1, %xmm0
.LBE962:
.LBE961:
	.loc 1 2565 4
	movaps	%xmm0, -1104(%rbp)
	movdqa	-1088(%rbp), %xmm0
	movaps	%xmm0, -8640(%rbp)
	movdqa	-1056(%rbp), %xmm0
	movaps	%xmm0, -8656(%rbp)
.LBB963:
.LBB964:
	.loc 2 1042 21
	movdqa	-8640(%rbp), %xmm1
	.loc 2 1042 35
	movdqa	-8656(%rbp), %xmm0
	.loc 2 1042 33
	paddd	%xmm1, %xmm0
.LBE964:
.LBE963:
	.loc 1 2565 4
	movaps	%xmm0, -1120(%rbp)
	movdqa	-1072(%rbp), %xmm0
	movaps	%xmm0, -8608(%rbp)
	movdqa	-1040(%rbp), %xmm0
	movaps	%xmm0, -8624(%rbp)
.LBB965:
.LBB966:
	.loc 2 1090 21
	movdqa	-8608(%rbp), %xmm0
	.loc 2 1090 35
	movdqa	-8624(%rbp), %xmm1
	.loc 2 1090 33
	psubd	%xmm1, %xmm0
.LBE966:
.LBE965:
	.loc 1 2565 4
	movaps	%xmm0, -1136(%rbp)
	movdqa	-1088(%rbp), %xmm0
	movaps	%xmm0, -8576(%rbp)
	movdqa	-1056(%rbp), %xmm0
	movaps	%xmm0, -8592(%rbp)
.LBB967:
.LBB968:
	.loc 2 1090 21
	movdqa	-8576(%rbp), %xmm0
	.loc 2 1090 35
	movdqa	-8592(%rbp), %xmm1
	.loc 2 1090 33
	psubd	%xmm1, %xmm0
.LBE968:
.LBE967:
	.loc 1 2565 4
	movaps	%xmm0, -1152(%rbp)
	movdqa	-1120(%rbp), %xmm0
	movaps	%xmm0, -8544(%rbp)
	movl	$10, -8548(%rbp)
.LBB969:
.LBB970:
	.loc 2 1180 19
	movdqa	-8544(%rbp), %xmm1
	movd	-8548(%rbp), %xmm0
	psrad	%xmm0, %xmm1
	.loc 2 1180 10
	movdqa	%xmm1, %xmm2
	movdqa	-1104(%rbp), %xmm0
	movaps	%xmm0, -8512(%rbp)
	movl	$10, -8516(%rbp)
.LBE970:
.LBE969:
.LBB971:
.LBB972:
	.loc 2 1180 19
	movdqa	-8512(%rbp), %xmm1
	movd	-8516(%rbp), %xmm0
	psrad	%xmm0, %xmm1
	.loc 2 1180 10
	movdqa	%xmm1, %xmm0
	movaps	%xmm0, -8480(%rbp)
	movaps	%xmm2, -8496(%rbp)
.LBE972:
.LBE971:
.LBB973:
.LBB974:
	.loc 2 970 19
	movdqa	-8496(%rbp), %xmm1
	movdqa	-8480(%rbp), %xmm0
	packssdw	%xmm1, %xmm0
.LBE974:
.LBE973:
	.loc 1 2565 4
	movaps	%xmm0, -176(%rbp)
	movdqa	-1152(%rbp), %xmm0
	movaps	%xmm0, -8448(%rbp)
	movl	$10, -8452(%rbp)
.LBB975:
.LBB976:
	.loc 2 1180 19
	movdqa	-8448(%rbp), %xmm1
	movd	-8452(%rbp), %xmm0
	psrad	%xmm0, %xmm1
	.loc 2 1180 10
	movdqa	%xmm1, %xmm2
	movdqa	-1136(%rbp), %xmm0
	movaps	%xmm0, -8416(%rbp)
	movl	$10, -8420(%rbp)
.LBE976:
.LBE975:
.LBB977:
.LBB978:
	.loc 2 1180 19
	movdqa	-8416(%rbp), %xmm1
	movd	-8420(%rbp), %xmm0
	psrad	%xmm0, %xmm1
	.loc 2 1180 10
	movdqa	%xmm1, %xmm0
	movaps	%xmm0, -8384(%rbp)
	movaps	%xmm2, -8400(%rbp)
.LBE978:
.LBE977:
.LBB979:
.LBB980:
	.loc 2 970 19
	movdqa	-8400(%rbp), %xmm1
	movdqa	-8384(%rbp), %xmm0
	packssdw	%xmm1, %xmm0
.LBE980:
.LBE979:
	.loc 1 2565 4
	movaps	%xmm0, -288(%rbp)
	movdqa	-560(%rbp), %xmm0
	movaps	%xmm0, -8352(%rbp)
	movdqa	-144(%rbp), %xmm0
	movaps	%xmm0, -8368(%rbp)
.LBE956:
.LBB981:
.LBB982:
.LBB983:
	.loc 2 1042 21
	movdqa	-8352(%rbp), %xmm1
	.loc 2 1042 35
	movdqa	-8368(%rbp), %xmm0
	.loc 2 1042 33
	paddd	%xmm1, %xmm0
.LBE983:
.LBE982:
	.loc 1 2565 4
	movaps	%xmm0, -1168(%rbp)
	movdqa	-576(%rbp), %xmm0
	movaps	%xmm0, -8320(%rbp)
	movdqa	-144(%rbp), %xmm0
	movaps	%xmm0, -8336(%rbp)
.LBB984:
.LBB985:
	.loc 2 1042 21
	movdqa	-8320(%rbp), %xmm1
	.loc 2 1042 35
	movdqa	-8336(%rbp), %xmm0
	.loc 2 1042 33
	paddd	%xmm1, %xmm0
.LBE985:
.LBE984:
	.loc 1 2565 4
	movaps	%xmm0, -1184(%rbp)
	movdqa	-1168(%rbp), %xmm0
	movaps	%xmm0, -8288(%rbp)
	movdqa	-1008(%rbp), %xmm0
	movaps	%xmm0, -8304(%rbp)
.LBB986:
.LBB987:
	.loc 2 1042 21
	movdqa	-8288(%rbp), %xmm1
	.loc 2 1042 35
	movdqa	-8304(%rbp), %xmm0
	.loc 2 1042 33
	paddd	%xmm1, %xmm0
.LBE987:
.LBE986:
	.loc 1 2565 4
	movaps	%xmm0, -1200(%rbp)
	movdqa	-1184(%rbp), %xmm0
	movaps	%xmm0, -8256(%rbp)
	movdqa	-1024(%rbp), %xmm0
	movaps	%xmm0, -8272(%rbp)
.LBB988:
.LBB989:
	.loc 2 1042 21
	movdqa	-8256(%rbp), %xmm1
	.loc 2 1042 35
	movdqa	-8272(%rbp), %xmm0
	.loc 2 1042 33
	paddd	%xmm1, %xmm0
.LBE989:
.LBE988:
	.loc 1 2565 4
	movaps	%xmm0, -1216(%rbp)
	movdqa	-1168(%rbp), %xmm0
	movaps	%xmm0, -8224(%rbp)
	movdqa	-1008(%rbp), %xmm0
	movaps	%xmm0, -8240(%rbp)
.LBB990:
.LBB991:
	.loc 2 1090 21
	movdqa	-8224(%rbp), %xmm0
	.loc 2 1090 35
	movdqa	-8240(%rbp), %xmm1
	.loc 2 1090 33
	psubd	%xmm1, %xmm0
.LBE991:
.LBE990:
	.loc 1 2565 4
	movaps	%xmm0, -1232(%rbp)
	movdqa	-1184(%rbp), %xmm0
	movaps	%xmm0, -8192(%rbp)
	movdqa	-1024(%rbp), %xmm0
	movaps	%xmm0, -8208(%rbp)
.LBB992:
.LBB993:
	.loc 2 1090 21
	movdqa	-8192(%rbp), %xmm0
	.loc 2 1090 35
	movdqa	-8208(%rbp), %xmm1
	.loc 2 1090 33
	psubd	%xmm1, %xmm0
.LBE993:
.LBE992:
	.loc 1 2565 4
	movaps	%xmm0, -1248(%rbp)
	movdqa	-1216(%rbp), %xmm0
	movaps	%xmm0, -8160(%rbp)
	movl	$10, -8164(%rbp)
.LBB994:
.LBB995:
	.loc 2 1180 19
	movdqa	-8160(%rbp), %xmm1
	movd	-8164(%rbp), %xmm0
	psrad	%xmm0, %xmm1
	.loc 2 1180 10
	movdqa	%xmm1, %xmm2
	movdqa	-1200(%rbp), %xmm0
	movaps	%xmm0, -8128(%rbp)
	movl	$10, -8132(%rbp)
.LBE995:
.LBE994:
.LBB996:
.LBB997:
	.loc 2 1180 19
	movdqa	-8128(%rbp), %xmm1
	movd	-8132(%rbp), %xmm0
	psrad	%xmm0, %xmm1
	.loc 2 1180 10
	movdqa	%xmm1, %xmm0
	movaps	%xmm0, -8096(%rbp)
	movaps	%xmm2, -8112(%rbp)
.LBE997:
.LBE996:
.LBB998:
.LBB999:
	.loc 2 970 19
	movdqa	-8112(%rbp), %xmm1
	movdqa	-8096(%rbp), %xmm0
	packssdw	%xmm1, %xmm0
.LBE999:
.LBE998:
	.loc 1 2565 4
	movaps	%xmm0, -192(%rbp)
	movdqa	-1248(%rbp), %xmm0
	movaps	%xmm0, -8064(%rbp)
	movl	$10, -8068(%rbp)
.LBB1000:
.LBB1001:
	.loc 2 1180 19
	movdqa	-8064(%rbp), %xmm1
	movd	-8068(%rbp), %xmm0
	psrad	%xmm0, %xmm1
	.loc 2 1180 10
	movdqa	%xmm1, %xmm2
	movdqa	-1232(%rbp), %xmm0
	movaps	%xmm0, -8032(%rbp)
	movl	$10, -8036(%rbp)
.LBE1001:
.LBE1000:
.LBB1002:
.LBB1003:
	.loc 2 1180 19
	movdqa	-8032(%rbp), %xmm1
	movd	-8036(%rbp), %xmm0
	psrad	%xmm0, %xmm1
	.loc 2 1180 10
	movdqa	%xmm1, %xmm0
	movaps	%xmm0, -8000(%rbp)
	movaps	%xmm2, -8016(%rbp)
.LBE1003:
.LBE1002:
.LBB1004:
.LBB1005:
	.loc 2 970 19
	movdqa	-8016(%rbp), %xmm1
	movdqa	-8000(%rbp), %xmm0
	packssdw	%xmm1, %xmm0
.LBE1005:
.LBE1004:
	.loc 1 2565 4
	movaps	%xmm0, -272(%rbp)
	movdqa	-592(%rbp), %xmm0
	movaps	%xmm0, -7968(%rbp)
	movdqa	-144(%rbp), %xmm0
	movaps	%xmm0, -7984(%rbp)
.LBE981:
.LBB1006:
.LBB1007:
.LBB1008:
	.loc 2 1042 21
	movdqa	-7968(%rbp), %xmm1
	.loc 2 1042 35
	movdqa	-7984(%rbp), %xmm0
	.loc 2 1042 33
	paddd	%xmm1, %xmm0
.LBE1008:
.LBE1007:
	.loc 1 2565 4
	movaps	%xmm0, -1264(%rbp)
	movdqa	-608(%rbp), %xmm0
	movaps	%xmm0, -7936(%rbp)
	movdqa	-144(%rbp), %xmm0
	movaps	%xmm0, -7952(%rbp)
.LBB1009:
.LBB1010:
	.loc 2 1042 21
	movdqa	-7936(%rbp), %xmm1
	.loc 2 1042 35
	movdqa	-7952(%rbp), %xmm0
	.loc 2 1042 33
	paddd	%xmm1, %xmm0
.LBE1010:
.LBE1009:
	.loc 1 2565 4
	movaps	%xmm0, -1280(%rbp)
	movdqa	-1264(%rbp), %xmm0
	movaps	%xmm0, -7904(%rbp)
	movdqa	-976(%rbp), %xmm0
	movaps	%xmm0, -7920(%rbp)
.LBB1011:
.LBB1012:
	.loc 2 1042 21
	movdqa	-7904(%rbp), %xmm1
	.loc 2 1042 35
	movdqa	-7920(%rbp), %xmm0
	.loc 2 1042 33
	paddd	%xmm1, %xmm0
.LBE1012:
.LBE1011:
	.loc 1 2565 4
	movaps	%xmm0, -1296(%rbp)
	movdqa	-1280(%rbp), %xmm0
	movaps	%xmm0, -7872(%rbp)
	movdqa	-992(%rbp), %xmm0
	movaps	%xmm0, -7888(%rbp)
.LBB1013:
.LBB1014:
	.loc 2 1042 21
	movdqa	-7872(%rbp), %xmm1
	.loc 2 1042 35
	movdqa	-7888(%rbp), %xmm0
	.loc 2 1042 33
	paddd	%xmm1, %xmm0
.LBE1014:
.LBE1013:
	.loc 1 2565 4
	movaps	%xmm0, -1312(%rbp)
	movdqa	-1264(%rbp), %xmm0
	movaps	%xmm0, -7840(%rbp)
	movdqa	-976(%rbp), %xmm0
	movaps	%xmm0, -7856(%rbp)
.LBB1015:
.LBB1016:
	.loc 2 1090 21
	movdqa	-7840(%rbp), %xmm0
	.loc 2 1090 35
	movdqa	-7856(%rbp), %xmm1
	.loc 2 1090 33
	psubd	%xmm1, %xmm0
.LBE1016:
.LBE1015:
	.loc 1 2565 4
	movaps	%xmm0, -1328(%rbp)
	movdqa	-1280(%rbp), %xmm0
	movaps	%xmm0, -7808(%rbp)
	movdqa	-992(%rbp), %xmm0
	movaps	%xmm0, -7824(%rbp)
.LBB1017:
.LBB1018:
	.loc 2 1090 21
	movdqa	-7808(%rbp), %xmm0
	.loc 2 1090 35
	movdqa	-7824(%rbp), %xmm1
	.loc 2 1090 33
	psubd	%xmm1, %xmm0
.LBE1018:
.LBE1017:
	.loc 1 2565 4
	movaps	%xmm0, -1344(%rbp)
	movdqa	-1312(%rbp), %xmm0
	movaps	%xmm0, -7776(%rbp)
	movl	$10, -7780(%rbp)
.LBB1019:
.LBB1020:
	.loc 2 1180 19
	movdqa	-7776(%rbp), %xmm1
	movd	-7780(%rbp), %xmm0
	psrad	%xmm0, %xmm1
	.loc 2 1180 10
	movdqa	%xmm1, %xmm2
	movdqa	-1296(%rbp), %xmm0
	movaps	%xmm0, -7744(%rbp)
	movl	$10, -7748(%rbp)
.LBE1020:
.LBE1019:
.LBB1021:
.LBB1022:
	.loc 2 1180 19
	movdqa	-7744(%rbp), %xmm1
	movd	-7748(%rbp), %xmm0
	psrad	%xmm0, %xmm1
	.loc 2 1180 10
	movdqa	%xmm1, %xmm0
	movaps	%xmm0, -7712(%rbp)
	movaps	%xmm2, -7728(%rbp)
.LBE1022:
.LBE1021:
.LBB1023:
.LBB1024:
	.loc 2 970 19
	movdqa	-7728(%rbp), %xmm1
	movdqa	-7712(%rbp), %xmm0
	packssdw	%xmm1, %xmm0
.LBE1024:
.LBE1023:
	.loc 1 2565 4
	movaps	%xmm0, -208(%rbp)
	movdqa	-1344(%rbp), %xmm0
	movaps	%xmm0, -7680(%rbp)
	movl	$10, -7684(%rbp)
.LBB1025:
.LBB1026:
	.loc 2 1180 19
	movdqa	-7680(%rbp), %xmm1
	movd	-7684(%rbp), %xmm0
	psrad	%xmm0, %xmm1
	.loc 2 1180 10
	movdqa	%xmm1, %xmm2
	movdqa	-1328(%rbp), %xmm0
	movaps	%xmm0, -7648(%rbp)
	movl	$10, -7652(%rbp)
.LBE1026:
.LBE1025:
.LBB1027:
.LBB1028:
	.loc 2 1180 19
	movdqa	-7648(%rbp), %xmm1
	movd	-7652(%rbp), %xmm0
	psrad	%xmm0, %xmm1
	.loc 2 1180 10
	movdqa	%xmm1, %xmm0
	movaps	%xmm0, -7616(%rbp)
	movaps	%xmm2, -7632(%rbp)
.LBE1028:
.LBE1027:
.LBB1029:
.LBB1030:
	.loc 2 970 19
	movdqa	-7632(%rbp), %xmm1
	movdqa	-7616(%rbp), %xmm0
	packssdw	%xmm1, %xmm0
.LBE1030:
.LBE1029:
	.loc 1 2565 4
	movaps	%xmm0, -256(%rbp)
	movdqa	-528(%rbp), %xmm0
	movaps	%xmm0, -7584(%rbp)
	movdqa	-144(%rbp), %xmm0
	movaps	%xmm0, -7600(%rbp)
.LBE1006:
.LBB1031:
.LBB1032:
.LBB1033:
	.loc 2 1042 21
	movdqa	-7584(%rbp), %xmm1
	.loc 2 1042 35
	movdqa	-7600(%rbp), %xmm0
	.loc 2 1042 33
	paddd	%xmm1, %xmm0
.LBE1033:
.LBE1032:
	.loc 1 2565 4
	movaps	%xmm0, -1360(%rbp)
	movdqa	-544(%rbp), %xmm0
	movaps	%xmm0, -7552(%rbp)
	movdqa	-144(%rbp), %xmm0
	movaps	%xmm0, -7568(%rbp)
.LBB1034:
.LBB1035:
	.loc 2 1042 21
	movdqa	-7552(%rbp), %xmm1
	.loc 2 1042 35
	movdqa	-7568(%rbp), %xmm0
	.loc 2 1042 33
	paddd	%xmm1, %xmm0
.LBE1035:
.LBE1034:
	.loc 1 2565 4
	movaps	%xmm0, -1376(%rbp)
	movdqa	-1360(%rbp), %xmm0
	movaps	%xmm0, -7520(%rbp)
	movdqa	-944(%rbp), %xmm0
	movaps	%xmm0, -7536(%rbp)
.LBB1036:
.LBB1037:
	.loc 2 1042 21
	movdqa	-7520(%rbp), %xmm1
	.loc 2 1042 35
	movdqa	-7536(%rbp), %xmm0
	.loc 2 1042 33
	paddd	%xmm1, %xmm0
.LBE1037:
.LBE1036:
	.loc 1 2565 4
	movaps	%xmm0, -1392(%rbp)
	movdqa	-1376(%rbp), %xmm0
	movaps	%xmm0, -7488(%rbp)
	movdqa	-960(%rbp), %xmm0
	movaps	%xmm0, -7504(%rbp)
.LBB1038:
.LBB1039:
	.loc 2 1042 21
	movdqa	-7488(%rbp), %xmm1
	.loc 2 1042 35
	movdqa	-7504(%rbp), %xmm0
	.loc 2 1042 33
	paddd	%xmm1, %xmm0
.LBE1039:
.LBE1038:
	.loc 1 2565 4
	movaps	%xmm0, -1408(%rbp)
	movdqa	-1360(%rbp), %xmm0
	movaps	%xmm0, -7456(%rbp)
	movdqa	-944(%rbp), %xmm0
	movaps	%xmm0, -7472(%rbp)
.LBB1040:
.LBB1041:
	.loc 2 1090 21
	movdqa	-7456(%rbp), %xmm0
	.loc 2 1090 35
	movdqa	-7472(%rbp), %xmm1
	.loc 2 1090 33
	psubd	%xmm1, %xmm0
.LBE1041:
.LBE1040:
	.loc 1 2565 4
	movaps	%xmm0, -1424(%rbp)
	movdqa	-1376(%rbp), %xmm0
	movaps	%xmm0, -7424(%rbp)
	movdqa	-960(%rbp), %xmm0
	movaps	%xmm0, -7440(%rbp)
.LBB1042:
.LBB1043:
	.loc 2 1090 21
	movdqa	-7424(%rbp), %xmm0
	.loc 2 1090 35
	movdqa	-7440(%rbp), %xmm1
	.loc 2 1090 33
	psubd	%xmm1, %xmm0
.LBE1043:
.LBE1042:
	.loc 1 2565 4
	movaps	%xmm0, -1440(%rbp)
	movdqa	-1408(%rbp), %xmm0
	movaps	%xmm0, -7392(%rbp)
	movl	$10, -7396(%rbp)
.LBB1044:
.LBB1045:
	.loc 2 1180 19
	movdqa	-7392(%rbp), %xmm1
	movd	-7396(%rbp), %xmm0
	psrad	%xmm0, %xmm1
	.loc 2 1180 10
	movdqa	%xmm1, %xmm2
	movdqa	-1392(%rbp), %xmm0
	movaps	%xmm0, -7360(%rbp)
	movl	$10, -7364(%rbp)
.LBE1045:
.LBE1044:
.LBB1046:
.LBB1047:
	.loc 2 1180 19
	movdqa	-7360(%rbp), %xmm1
	movd	-7364(%rbp), %xmm0
	psrad	%xmm0, %xmm1
	.loc 2 1180 10
	movdqa	%xmm1, %xmm0
	movaps	%xmm0, -7328(%rbp)
	movaps	%xmm2, -7344(%rbp)
.LBE1047:
.LBE1046:
.LBB1048:
.LBB1049:
	.loc 2 970 19
	movdqa	-7344(%rbp), %xmm1
	movdqa	-7328(%rbp), %xmm0
	packssdw	%xmm1, %xmm0
.LBE1049:
.LBE1048:
	.loc 1 2565 4
	movaps	%xmm0, -224(%rbp)
	movdqa	-1440(%rbp), %xmm0
	movaps	%xmm0, -7296(%rbp)
	movl	$10, -7300(%rbp)
.LBB1050:
.LBB1051:
	.loc 2 1180 19
	movdqa	-7296(%rbp), %xmm1
	movd	-7300(%rbp), %xmm0
	psrad	%xmm0, %xmm1
	.loc 2 1180 10
	movdqa	%xmm1, %xmm2
	movdqa	-1424(%rbp), %xmm0
	movaps	%xmm0, -7264(%rbp)
	movl	$10, -7268(%rbp)
.LBE1051:
.LBE1050:
.LBB1052:
.LBB1053:
	.loc 2 1180 19
	movdqa	-7264(%rbp), %xmm1
	movd	-7268(%rbp), %xmm0
	psrad	%xmm0, %xmm1
	.loc 2 1180 10
	movdqa	%xmm1, %xmm0
	movaps	%xmm0, -7232(%rbp)
	movaps	%xmm2, -7248(%rbp)
.LBE1053:
.LBE1052:
.LBB1054:
.LBB1055:
	.loc 2 970 19
	movdqa	-7248(%rbp), %xmm1
	movdqa	-7232(%rbp), %xmm0
	packssdw	%xmm1, %xmm0
.LBE1055:
.LBE1054:
	.loc 1 2565 4
	movaps	%xmm0, -240(%rbp)
.LBE1031:
.LBE843:
	.loc 1 2569 7
	movdqa	-176(%rbp), %xmm0
	movaps	%xmm0, -1456(%rbp)
	movdqa	-176(%rbp), %xmm0
	movaps	%xmm0, -7200(%rbp)
	movdqa	-240(%rbp), %xmm0
	movaps	%xmm0, -7216(%rbp)
.LBB1056:
.LBB1057:
	.loc 2 1012 19
	movdqa	-7216(%rbp), %xmm1
	movdqa	-7200(%rbp), %xmm0
	punpcklwd	%xmm1, %xmm0
.LBE1057:
.LBE1056:
	.loc 1 2569 7
	movaps	%xmm0, -176(%rbp)
	movdqa	-1456(%rbp), %xmm0
	movaps	%xmm0, -7168(%rbp)
	movdqa	-240(%rbp), %xmm0
	movaps	%xmm0, -7184(%rbp)
.LBB1058:
.LBB1059:
	.loc 2 988 19
	movdqa	-7184(%rbp), %xmm1
	movdqa	-7168(%rbp), %xmm0
	punpckhwd	%xmm1, %xmm0
.LBE1059:
.LBE1058:
	.loc 1 2569 7
	movaps	%xmm0, -240(%rbp)
	.loc 1 2570 7
	movdqa	-192(%rbp), %xmm0
	movaps	%xmm0, -1456(%rbp)
	movdqa	-192(%rbp), %xmm0
	movaps	%xmm0, -7136(%rbp)
	movdqa	-256(%rbp), %xmm0
	movaps	%xmm0, -7152(%rbp)
.LBB1060:
.LBB1061:
	.loc 2 1012 19
	movdqa	-7152(%rbp), %xmm1
	movdqa	-7136(%rbp), %xmm0
	punpcklwd	%xmm1, %xmm0
.LBE1061:
.LBE1060:
	.loc 1 2570 7
	movaps	%xmm0, -192(%rbp)
	movdqa	-1456(%rbp), %xmm0
	movaps	%xmm0, -7104(%rbp)
	movdqa	-256(%rbp), %xmm0
	movaps	%xmm0, -7120(%rbp)
.LBB1062:
.LBB1063:
	.loc 2 988 19
	movdqa	-7120(%rbp), %xmm1
	movdqa	-7104(%rbp), %xmm0
	punpckhwd	%xmm1, %xmm0
.LBE1063:
.LBE1062:
	.loc 1 2570 7
	movaps	%xmm0, -256(%rbp)
	.loc 1 2571 7
	movdqa	-208(%rbp), %xmm0
	movaps	%xmm0, -1456(%rbp)
	movdqa	-208(%rbp), %xmm0
	movaps	%xmm0, -7072(%rbp)
	movdqa	-272(%rbp), %xmm0
	movaps	%xmm0, -7088(%rbp)
.LBB1064:
.LBB1065:
	.loc 2 1012 19
	movdqa	-7088(%rbp), %xmm1
	movdqa	-7072(%rbp), %xmm0
	punpcklwd	%xmm1, %xmm0
.LBE1065:
.LBE1064:
	.loc 1 2571 7
	movaps	%xmm0, -208(%rbp)
	movdqa	-1456(%rbp), %xmm0
	movaps	%xmm0, -7040(%rbp)
	movdqa	-272(%rbp), %xmm0
	movaps	%xmm0, -7056(%rbp)
.LBB1066:
.LBB1067:
	.loc 2 988 19
	movdqa	-7056(%rbp), %xmm1
	movdqa	-7040(%rbp), %xmm0
	punpckhwd	%xmm1, %xmm0
.LBE1067:
.LBE1066:
	.loc 1 2571 7
	movaps	%xmm0, -272(%rbp)
	.loc 1 2572 7
	movdqa	-224(%rbp), %xmm0
	movaps	%xmm0, -1456(%rbp)
	movdqa	-224(%rbp), %xmm0
	movaps	%xmm0, -7008(%rbp)
	movdqa	-288(%rbp), %xmm0
	movaps	%xmm0, -7024(%rbp)
.LBB1068:
.LBB1069:
	.loc 2 1012 19
	movdqa	-7024(%rbp), %xmm1
	movdqa	-7008(%rbp), %xmm0
	punpcklwd	%xmm1, %xmm0
.LBE1069:
.LBE1068:
	.loc 1 2572 7
	movaps	%xmm0, -224(%rbp)
	movdqa	-1456(%rbp), %xmm0
	movaps	%xmm0, -6976(%rbp)
	movdqa	-288(%rbp), %xmm0
	movaps	%xmm0, -6992(%rbp)
.LBB1070:
.LBB1071:
	.loc 2 988 19
	movdqa	-6992(%rbp), %xmm1
	movdqa	-6976(%rbp), %xmm0
	punpckhwd	%xmm1, %xmm0
.LBE1071:
.LBE1070:
	.loc 1 2572 7
	movaps	%xmm0, -288(%rbp)
	.loc 1 2575 7
	movdqa	-176(%rbp), %xmm0
	movaps	%xmm0, -1456(%rbp)
	movdqa	-176(%rbp), %xmm0
	movaps	%xmm0, -6944(%rbp)
	movdqa	-208(%rbp), %xmm0
	movaps	%xmm0, -6960(%rbp)
.LBB1072:
.LBB1073:
	.loc 2 1012 19
	movdqa	-6960(%rbp), %xmm1
	movdqa	-6944(%rbp), %xmm0
	punpcklwd	%xmm1, %xmm0
.LBE1073:
.LBE1072:
	.loc 1 2575 7
	movaps	%xmm0, -176(%rbp)
	movdqa	-1456(%rbp), %xmm0
	movaps	%xmm0, -6912(%rbp)
	movdqa	-208(%rbp), %xmm0
	movaps	%xmm0, -6928(%rbp)
.LBB1074:
.LBB1075:
	.loc 2 988 19
	movdqa	-6928(%rbp), %xmm1
	movdqa	-6912(%rbp), %xmm0
	punpckhwd	%xmm1, %xmm0
.LBE1075:
.LBE1074:
	.loc 1 2575 7
	movaps	%xmm0, -208(%rbp)
	.loc 1 2576 7
	movdqa	-192(%rbp), %xmm0
	movaps	%xmm0, -1456(%rbp)
	movdqa	-192(%rbp), %xmm0
	movaps	%xmm0, -6880(%rbp)
	movdqa	-224(%rbp), %xmm0
	movaps	%xmm0, -6896(%rbp)
.LBB1076:
.LBB1077:
	.loc 2 1012 19
	movdqa	-6896(%rbp), %xmm1
	movdqa	-6880(%rbp), %xmm0
	punpcklwd	%xmm1, %xmm0
.LBE1077:
.LBE1076:
	.loc 1 2576 7
	movaps	%xmm0, -192(%rbp)
	movdqa	-1456(%rbp), %xmm0
	movaps	%xmm0, -6848(%rbp)
	movdqa	-224(%rbp), %xmm0
	movaps	%xmm0, -6864(%rbp)
.LBB1078:
.LBB1079:
	.loc 2 988 19
	movdqa	-6864(%rbp), %xmm1
	movdqa	-6848(%rbp), %xmm0
	punpckhwd	%xmm1, %xmm0
.LBE1079:
.LBE1078:
	.loc 1 2576 7
	movaps	%xmm0, -224(%rbp)
	.loc 1 2577 7
	movdqa	-240(%rbp), %xmm0
	movaps	%xmm0, -1456(%rbp)
	movdqa	-240(%rbp), %xmm0
	movaps	%xmm0, -6816(%rbp)
	movdqa	-272(%rbp), %xmm0
	movaps	%xmm0, -6832(%rbp)
.LBB1080:
.LBB1081:
	.loc 2 1012 19
	movdqa	-6832(%rbp), %xmm1
	movdqa	-6816(%rbp), %xmm0
	punpcklwd	%xmm1, %xmm0
.LBE1081:
.LBE1080:
	.loc 1 2577 7
	movaps	%xmm0, -240(%rbp)
	movdqa	-1456(%rbp), %xmm0
	movaps	%xmm0, -6784(%rbp)
	movdqa	-272(%rbp), %xmm0
	movaps	%xmm0, -6800(%rbp)
.LBB1082:
.LBB1083:
	.loc 2 988 19
	movdqa	-6800(%rbp), %xmm1
	movdqa	-6784(%rbp), %xmm0
	punpckhwd	%xmm1, %xmm0
.LBE1083:
.LBE1082:
	.loc 1 2577 7
	movaps	%xmm0, -272(%rbp)
	.loc 1 2578 7
	movdqa	-256(%rbp), %xmm0
	movaps	%xmm0, -1456(%rbp)
	movdqa	-256(%rbp), %xmm0
	movaps	%xmm0, -6752(%rbp)
	movdqa	-288(%rbp), %xmm0
	movaps	%xmm0, -6768(%rbp)
.LBB1084:
.LBB1085:
	.loc 2 1012 19
	movdqa	-6768(%rbp), %xmm1
	movdqa	-6752(%rbp), %xmm0
	punpcklwd	%xmm1, %xmm0
.LBE1085:
.LBE1084:
	.loc 1 2578 7
	movaps	%xmm0, -256(%rbp)
	movdqa	-1456(%rbp), %xmm0
	movaps	%xmm0, -6720(%rbp)
	movdqa	-288(%rbp), %xmm0
	movaps	%xmm0, -6736(%rbp)
.LBB1086:
.LBB1087:
	.loc 2 988 19
	movdqa	-6736(%rbp), %xmm1
	movdqa	-6720(%rbp), %xmm0
	punpckhwd	%xmm1, %xmm0
.LBE1087:
.LBE1086:
	.loc 1 2578 7
	movaps	%xmm0, -288(%rbp)
	.loc 1 2581 7
	movdqa	-176(%rbp), %xmm0
	movaps	%xmm0, -1456(%rbp)
	movdqa	-176(%rbp), %xmm0
	movaps	%xmm0, -6688(%rbp)
	movdqa	-192(%rbp), %xmm0
	movaps	%xmm0, -6704(%rbp)
.LBB1088:
.LBB1089:
	.loc 2 1012 19
	movdqa	-6704(%rbp), %xmm1
	movdqa	-6688(%rbp), %xmm0
	punpcklwd	%xmm1, %xmm0
.LBE1089:
.LBE1088:
	.loc 1 2581 7
	movaps	%xmm0, -176(%rbp)
	movdqa	-1456(%rbp), %xmm0
	movaps	%xmm0, -6656(%rbp)
	movdqa	-192(%rbp), %xmm0
	movaps	%xmm0, -6672(%rbp)
.LBB1090:
.LBB1091:
	.loc 2 988 19
	movdqa	-6672(%rbp), %xmm1
	movdqa	-6656(%rbp), %xmm0
	punpckhwd	%xmm1, %xmm0
.LBE1091:
.LBE1090:
	.loc 1 2581 7
	movaps	%xmm0, -192(%rbp)
	.loc 1 2582 7
	movdqa	-208(%rbp), %xmm0
	movaps	%xmm0, -1456(%rbp)
	movdqa	-208(%rbp), %xmm0
	movaps	%xmm0, -6624(%rbp)
	movdqa	-224(%rbp), %xmm0
	movaps	%xmm0, -6640(%rbp)
.LBB1092:
.LBB1093:
	.loc 2 1012 19
	movdqa	-6640(%rbp), %xmm1
	movdqa	-6624(%rbp), %xmm0
	punpcklwd	%xmm1, %xmm0
.LBE1093:
.LBE1092:
	.loc 1 2582 7
	movaps	%xmm0, -208(%rbp)
	movdqa	-1456(%rbp), %xmm0
	movaps	%xmm0, -6592(%rbp)
	movdqa	-224(%rbp), %xmm0
	movaps	%xmm0, -6608(%rbp)
.LBB1094:
.LBB1095:
	.loc 2 988 19
	movdqa	-6608(%rbp), %xmm1
	movdqa	-6592(%rbp), %xmm0
	punpckhwd	%xmm1, %xmm0
.LBE1095:
.LBE1094:
	.loc 1 2582 7
	movaps	%xmm0, -224(%rbp)
	.loc 1 2583 7
	movdqa	-240(%rbp), %xmm0
	movaps	%xmm0, -1456(%rbp)
	movdqa	-240(%rbp), %xmm0
	movaps	%xmm0, -6560(%rbp)
	movdqa	-256(%rbp), %xmm0
	movaps	%xmm0, -6576(%rbp)
.LBB1096:
.LBB1097:
	.loc 2 1012 19
	movdqa	-6576(%rbp), %xmm1
	movdqa	-6560(%rbp), %xmm0
	punpcklwd	%xmm1, %xmm0
.LBE1097:
.LBE1096:
	.loc 1 2583 7
	movaps	%xmm0, -240(%rbp)
	movdqa	-1456(%rbp), %xmm0
	movaps	%xmm0, -6528(%rbp)
	movdqa	-256(%rbp), %xmm0
	movaps	%xmm0, -6544(%rbp)
.LBB1098:
.LBB1099:
	.loc 2 988 19
	movdqa	-6544(%rbp), %xmm1
	movdqa	-6528(%rbp), %xmm0
	punpckhwd	%xmm1, %xmm0
.LBE1099:
.LBE1098:
	.loc 1 2583 7
	movaps	%xmm0, -256(%rbp)
	.loc 1 2584 7
	movdqa	-272(%rbp), %xmm0
	movaps	%xmm0, -1456(%rbp)
	movdqa	-272(%rbp), %xmm0
	movaps	%xmm0, -6496(%rbp)
	movdqa	-288(%rbp), %xmm0
	movaps	%xmm0, -6512(%rbp)
.LBB1100:
.LBB1101:
	.loc 2 1012 19
	movdqa	-6512(%rbp), %xmm1
	movdqa	-6496(%rbp), %xmm0
	punpcklwd	%xmm1, %xmm0
.LBE1101:
.LBE1100:
	.loc 1 2584 7
	movaps	%xmm0, -272(%rbp)
	movdqa	-1456(%rbp), %xmm0
	movaps	%xmm0, -6464(%rbp)
	movdqa	-288(%rbp), %xmm0
	movaps	%xmm0, -6480(%rbp)
.LBB1102:
.LBB1103:
	.loc 2 988 19
	movdqa	-6480(%rbp), %xmm1
	movdqa	-6464(%rbp), %xmm0
	punpckhwd	%xmm1, %xmm0
.LBE1103:
.LBE1102:
	.loc 1 2584 7
	movaps	%xmm0, -288(%rbp)
	movdqa	-208(%rbp), %xmm0
	movaps	%xmm0, -6432(%rbp)
	movdqa	-272(%rbp), %xmm0
	movaps	%xmm0, -6448(%rbp)
.LBB1104:
.LBB1105:
.LBB1106:
	.loc 2 1012 19
	movdqa	-6448(%rbp), %xmm1
	movdqa	-6432(%rbp), %xmm0
	punpcklwd	%xmm1, %xmm0
.LBE1106:
.LBE1105:
	.loc 1 2588 4
	movaps	%xmm0, -1472(%rbp)
	movdqa	-208(%rbp), %xmm0
	movaps	%xmm0, -6400(%rbp)
	movdqa	-272(%rbp), %xmm0
	movaps	%xmm0, -6416(%rbp)
.LBB1107:
.LBB1108:
	.loc 2 988 19
	movdqa	-6416(%rbp), %xmm1
	movdqa	-6400(%rbp), %xmm0
	punpckhwd	%xmm1, %xmm0
.LBE1108:
.LBE1107:
	.loc 1 2588 4
	movaps	%xmm0, -1488(%rbp)
	movdqa	-1472(%rbp), %xmm0
	movaps	%xmm0, -6368(%rbp)
	movdqa	-16(%rbp), %xmm0
	movaps	%xmm0, -6384(%rbp)
.LBB1109:
.LBB1110:
	.loc 2 1126 19
	movdqa	-6384(%rbp), %xmm0
	movdqa	-6368(%rbp), %xmm1
	pmaddwd	%xmm1, %xmm0
.LBE1110:
.LBE1109:
	.loc 1 2588 4
	movaps	%xmm0, -1504(%rbp)
	movdqa	-1488(%rbp), %xmm0
	movaps	%xmm0, -6336(%rbp)
	movdqa	-16(%rbp), %xmm0
	movaps	%xmm0, -6352(%rbp)
.LBB1111:
.LBB1112:
	.loc 2 1126 19
	movdqa	-6352(%rbp), %xmm0
	movdqa	-6336(%rbp), %xmm1
	pmaddwd	%xmm1, %xmm0
.LBE1112:
.LBE1111:
	.loc 1 2588 4
	movaps	%xmm0, -1520(%rbp)
	movdqa	-1472(%rbp), %xmm0
	movaps	%xmm0, -6304(%rbp)
	movdqa	-32(%rbp), %xmm0
	movaps	%xmm0, -6320(%rbp)
.LBB1113:
.LBB1114:
	.loc 2 1126 19
	movdqa	-6320(%rbp), %xmm0
	movdqa	-6304(%rbp), %xmm1
	pmaddwd	%xmm1, %xmm0
.LBE1114:
.LBE1113:
	.loc 1 2588 4
	movaps	%xmm0, -1536(%rbp)
	movdqa	-1488(%rbp), %xmm0
	movaps	%xmm0, -6272(%rbp)
	movdqa	-32(%rbp), %xmm0
	movaps	%xmm0, -6288(%rbp)
.LBB1115:
.LBB1116:
	.loc 2 1126 19
	movdqa	-6288(%rbp), %xmm0
	movdqa	-6272(%rbp), %xmm1
	pmaddwd	%xmm1, %xmm0
.LBE1116:
.LBE1115:
	.loc 1 2588 4
	movaps	%xmm0, -1552(%rbp)
	movdqa	-176(%rbp), %xmm0
	movaps	%xmm0, -6240(%rbp)
	movdqa	-240(%rbp), %xmm0
	movaps	%xmm0, -6256(%rbp)
.LBB1117:
.LBB1118:
	.loc 2 1036 21
	movdqa	-6240(%rbp), %xmm1
	.loc 2 1036 35
	movdqa	-6256(%rbp), %xmm0
	.loc 2 1036 33
	paddw	%xmm1, %xmm0
.LBE1118:
.LBE1117:
	.loc 1 2588 4
	movaps	%xmm0, -1568(%rbp)
	movdqa	-176(%rbp), %xmm0
	movaps	%xmm0, -6208(%rbp)
	movdqa	-240(%rbp), %xmm0
	movaps	%xmm0, -6224(%rbp)
.LBB1119:
.LBB1120:
	.loc 2 1084 21
	movdqa	-6208(%rbp), %xmm0
	.loc 2 1084 35
	movdqa	-6224(%rbp), %xmm1
	.loc 2 1084 33
	psubw	%xmm1, %xmm0
.LBE1120:
.LBE1119:
	.loc 1 2588 4
	movaps	%xmm0, -1584(%rbp)
.LBB1121:
.LBB1122:
	.loc 2 772 24
	pxor	%xmm0, %xmm0
	movaps	%xmm0, -6176(%rbp)
	movdqa	-1568(%rbp), %xmm0
	movaps	%xmm0, -6192(%rbp)
.LBE1122:
.LBE1121:
.LBB1123:
.LBB1124:
	.loc 2 1012 19
	movdqa	-6192(%rbp), %xmm1
	movdqa	-6176(%rbp), %xmm0
	punpcklwd	%xmm1, %xmm0
	movaps	%xmm0, -6144(%rbp)
	movl	$4, -6148(%rbp)
.LBE1124:
.LBE1123:
.LBB1125:
.LBB1126:
	.loc 2 1180 19
	movdqa	-6144(%rbp), %xmm1
	movd	-6148(%rbp), %xmm0
	psrad	%xmm0, %xmm1
	.loc 2 1180 10
	movdqa	%xmm1, %xmm0
.LBE1126:
.LBE1125:
	.loc 1 2588 4
	movaps	%xmm0, -1600(%rbp)
.LBB1127:
.LBB1128:
	.loc 2 772 24
	pxor	%xmm0, %xmm0
	movaps	%xmm0, -6112(%rbp)
	movdqa	-1568(%rbp), %xmm0
	movaps	%xmm0, -6128(%rbp)
.LBE1128:
.LBE1127:
.LBB1129:
.LBB1130:
	.loc 2 988 19
	movdqa	-6128(%rbp), %xmm1
	movdqa	-6112(%rbp), %xmm0
	punpckhwd	%xmm1, %xmm0
	movaps	%xmm0, -6080(%rbp)
	movl	$4, -6084(%rbp)
.LBE1130:
.LBE1129:
.LBB1131:
.LBB1132:
	.loc 2 1180 19
	movdqa	-6080(%rbp), %xmm1
	movd	-6084(%rbp), %xmm0
	psrad	%xmm0, %xmm1
	.loc 2 1180 10
	movdqa	%xmm1, %xmm0
.LBE1132:
.LBE1131:
	.loc 1 2588 4
	movaps	%xmm0, -1616(%rbp)
.LBB1133:
.LBB1134:
	.loc 2 772 24
	pxor	%xmm0, %xmm0
	movaps	%xmm0, -6048(%rbp)
	movdqa	-1584(%rbp), %xmm0
	movaps	%xmm0, -6064(%rbp)
.LBE1134:
.LBE1133:
.LBB1135:
.LBB1136:
	.loc 2 1012 19
	movdqa	-6064(%rbp), %xmm1
	movdqa	-6048(%rbp), %xmm0
	punpcklwd	%xmm1, %xmm0
	movaps	%xmm0, -6016(%rbp)
	movl	$4, -6020(%rbp)
.LBE1136:
.LBE1135:
.LBB1137:
.LBB1138:
	.loc 2 1180 19
	movdqa	-6016(%rbp), %xmm1
	movd	-6020(%rbp), %xmm0
	psrad	%xmm0, %xmm1
	.loc 2 1180 10
	movdqa	%xmm1, %xmm0
.LBE1138:
.LBE1137:
	.loc 1 2588 4
	movaps	%xmm0, -1632(%rbp)
.LBB1139:
.LBB1140:
	.loc 2 772 24
	pxor	%xmm0, %xmm0
	movaps	%xmm0, -5984(%rbp)
	movdqa	-1584(%rbp), %xmm0
	movaps	%xmm0, -6000(%rbp)
.LBE1140:
.LBE1139:
.LBB1141:
.LBB1142:
	.loc 2 988 19
	movdqa	-6000(%rbp), %xmm1
	movdqa	-5984(%rbp), %xmm0
	punpckhwd	%xmm1, %xmm0
	movaps	%xmm0, -5952(%rbp)
	movl	$4, -5956(%rbp)
.LBE1142:
.LBE1141:
.LBB1143:
.LBB1144:
	.loc 2 1180 19
	movdqa	-5952(%rbp), %xmm1
	movd	-5956(%rbp), %xmm0
	psrad	%xmm0, %xmm1
	.loc 2 1180 10
	movdqa	%xmm1, %xmm0
.LBE1144:
.LBE1143:
	.loc 1 2588 4
	movaps	%xmm0, -1648(%rbp)
	movdqa	-1600(%rbp), %xmm0
	movaps	%xmm0, -5920(%rbp)
	movdqa	-1536(%rbp), %xmm0
	movaps	%xmm0, -5936(%rbp)
.LBB1145:
.LBB1146:
	.loc 2 1042 21
	movdqa	-5920(%rbp), %xmm1
	.loc 2 1042 35
	movdqa	-5936(%rbp), %xmm0
	.loc 2 1042 33
	paddd	%xmm1, %xmm0
.LBE1146:
.LBE1145:
	.loc 1 2588 4
	movaps	%xmm0, -1664(%rbp)
	movdqa	-1616(%rbp), %xmm0
	movaps	%xmm0, -5888(%rbp)
	movdqa	-1552(%rbp), %xmm0
	movaps	%xmm0, -5904(%rbp)
.LBB1147:
.LBB1148:
	.loc 2 1042 21
	movdqa	-5888(%rbp), %xmm1
	.loc 2 1042 35
	movdqa	-5904(%rbp), %xmm0
	.loc 2 1042 33
	paddd	%xmm1, %xmm0
.LBE1148:
.LBE1147:
	.loc 1 2588 4
	movaps	%xmm0, -1680(%rbp)
	movdqa	-1600(%rbp), %xmm0
	movaps	%xmm0, -5856(%rbp)
	movdqa	-1536(%rbp), %xmm0
	movaps	%xmm0, -5872(%rbp)
.LBB1149:
.LBB1150:
	.loc 2 1090 21
	movdqa	-5856(%rbp), %xmm0
	.loc 2 1090 35
	movdqa	-5872(%rbp), %xmm1
	.loc 2 1090 33
	psubd	%xmm1, %xmm0
.LBE1150:
.LBE1149:
	.loc 1 2588 4
	movaps	%xmm0, -1696(%rbp)
	movdqa	-1616(%rbp), %xmm0
	movaps	%xmm0, -5824(%rbp)
	movdqa	-1552(%rbp), %xmm0
	movaps	%xmm0, -5840(%rbp)
.LBB1151:
.LBB1152:
	.loc 2 1090 21
	movdqa	-5824(%rbp), %xmm0
	.loc 2 1090 35
	movdqa	-5840(%rbp), %xmm1
	.loc 2 1090 33
	psubd	%xmm1, %xmm0
.LBE1152:
.LBE1151:
	.loc 1 2588 4
	movaps	%xmm0, -1712(%rbp)
	movdqa	-1632(%rbp), %xmm0
	movaps	%xmm0, -5792(%rbp)
	movdqa	-1504(%rbp), %xmm0
	movaps	%xmm0, -5808(%rbp)
.LBB1153:
.LBB1154:
	.loc 2 1042 21
	movdqa	-5792(%rbp), %xmm1
	.loc 2 1042 35
	movdqa	-5808(%rbp), %xmm0
	.loc 2 1042 33
	paddd	%xmm1, %xmm0
.LBE1154:
.LBE1153:
	.loc 1 2588 4
	movaps	%xmm0, -1728(%rbp)
	movdqa	-1648(%rbp), %xmm0
	movaps	%xmm0, -5760(%rbp)
	movdqa	-1520(%rbp), %xmm0
	movaps	%xmm0, -5776(%rbp)
.LBB1155:
.LBB1156:
	.loc 2 1042 21
	movdqa	-5760(%rbp), %xmm1
	.loc 2 1042 35
	movdqa	-5776(%rbp), %xmm0
	.loc 2 1042 33
	paddd	%xmm1, %xmm0
.LBE1156:
.LBE1155:
	.loc 1 2588 4
	movaps	%xmm0, -1744(%rbp)
	movdqa	-1632(%rbp), %xmm0
	movaps	%xmm0, -5728(%rbp)
	movdqa	-1504(%rbp), %xmm0
	movaps	%xmm0, -5744(%rbp)
.LBB1157:
.LBB1158:
	.loc 2 1090 21
	movdqa	-5728(%rbp), %xmm0
	.loc 2 1090 35
	movdqa	-5744(%rbp), %xmm1
	.loc 2 1090 33
	psubd	%xmm1, %xmm0
.LBE1158:
.LBE1157:
	.loc 1 2588 4
	movaps	%xmm0, -1760(%rbp)
	movdqa	-1648(%rbp), %xmm0
	movaps	%xmm0, -5696(%rbp)
	movdqa	-1520(%rbp), %xmm0
	movaps	%xmm0, -5712(%rbp)
.LBB1159:
.LBB1160:
	.loc 2 1090 21
	movdqa	-5696(%rbp), %xmm0
	.loc 2 1090 35
	movdqa	-5712(%rbp), %xmm1
	.loc 2 1090 33
	psubd	%xmm1, %xmm0
.LBE1160:
.LBE1159:
	.loc 1 2588 4
	movaps	%xmm0, -1776(%rbp)
	movdqa	-288(%rbp), %xmm0
	movaps	%xmm0, -5664(%rbp)
	movdqa	-224(%rbp), %xmm0
	movaps	%xmm0, -5680(%rbp)
.LBB1161:
.LBB1162:
	.loc 2 1012 19
	movdqa	-5680(%rbp), %xmm1
	movdqa	-5664(%rbp), %xmm0
	punpcklwd	%xmm1, %xmm0
.LBE1162:
.LBE1161:
	.loc 1 2588 4
	movaps	%xmm0, -1792(%rbp)
	movdqa	-288(%rbp), %xmm0
	movaps	%xmm0, -5632(%rbp)
	movdqa	-224(%rbp), %xmm0
	movaps	%xmm0, -5648(%rbp)
.LBB1163:
.LBB1164:
	.loc 2 988 19
	movdqa	-5648(%rbp), %xmm1
	movdqa	-5632(%rbp), %xmm0
	punpckhwd	%xmm1, %xmm0
.LBE1164:
.LBE1163:
	.loc 1 2588 4
	movaps	%xmm0, -1808(%rbp)
	movdqa	-1792(%rbp), %xmm0
	movaps	%xmm0, -5600(%rbp)
	movdqa	-80(%rbp), %xmm0
	movaps	%xmm0, -5616(%rbp)
.LBB1165:
.LBB1166:
	.loc 2 1126 19
	movdqa	-5616(%rbp), %xmm0
	movdqa	-5600(%rbp), %xmm1
	pmaddwd	%xmm1, %xmm0
.LBE1166:
.LBE1165:
	.loc 1 2588 4
	movaps	%xmm0, -1824(%rbp)
	movdqa	-1808(%rbp), %xmm0
	movaps	%xmm0, -5568(%rbp)
	movdqa	-80(%rbp), %xmm0
	movaps	%xmm0, -5584(%rbp)
.LBB1167:
.LBB1168:
	.loc 2 1126 19
	movdqa	-5584(%rbp), %xmm0
	movdqa	-5568(%rbp), %xmm1
	pmaddwd	%xmm1, %xmm0
.LBE1168:
.LBE1167:
	.loc 1 2588 4
	movaps	%xmm0, -1840(%rbp)
	movdqa	-1792(%rbp), %xmm0
	movaps	%xmm0, -5536(%rbp)
	movdqa	-96(%rbp), %xmm0
	movaps	%xmm0, -5552(%rbp)
.LBB1169:
.LBB1170:
	.loc 2 1126 19
	movdqa	-5552(%rbp), %xmm0
	movdqa	-5536(%rbp), %xmm1
	pmaddwd	%xmm1, %xmm0
.LBE1170:
.LBE1169:
	.loc 1 2588 4
	movaps	%xmm0, -1856(%rbp)
	movdqa	-1808(%rbp), %xmm0
	movaps	%xmm0, -5504(%rbp)
	movdqa	-96(%rbp), %xmm0
	movaps	%xmm0, -5520(%rbp)
.LBB1171:
.LBB1172:
	.loc 2 1126 19
	movdqa	-5520(%rbp), %xmm0
	movdqa	-5504(%rbp), %xmm1
	pmaddwd	%xmm1, %xmm0
.LBE1172:
.LBE1171:
	.loc 1 2588 4
	movaps	%xmm0, -1872(%rbp)
	movdqa	-256(%rbp), %xmm0
	movaps	%xmm0, -5472(%rbp)
	movdqa	-192(%rbp), %xmm0
	movaps	%xmm0, -5488(%rbp)
.LBB1173:
.LBB1174:
	.loc 2 1012 19
	movdqa	-5488(%rbp), %xmm1
	movdqa	-5472(%rbp), %xmm0
	punpcklwd	%xmm1, %xmm0
.LBE1174:
.LBE1173:
	.loc 1 2588 4
	movaps	%xmm0, -1888(%rbp)
	movdqa	-256(%rbp), %xmm0
	movaps	%xmm0, -5440(%rbp)
	movdqa	-192(%rbp), %xmm0
	movaps	%xmm0, -5456(%rbp)
.LBB1175:
.LBB1176:
	.loc 2 988 19
	movdqa	-5456(%rbp), %xmm1
	movdqa	-5440(%rbp), %xmm0
	punpckhwd	%xmm1, %xmm0
.LBE1176:
.LBE1175:
	.loc 1 2588 4
	movaps	%xmm0, -1904(%rbp)
	movdqa	-1888(%rbp), %xmm0
	movaps	%xmm0, -5408(%rbp)
	movdqa	-112(%rbp), %xmm0
	movaps	%xmm0, -5424(%rbp)
.LBB1177:
.LBB1178:
	.loc 2 1126 19
	movdqa	-5424(%rbp), %xmm0
	movdqa	-5408(%rbp), %xmm1
	pmaddwd	%xmm1, %xmm0
.LBE1178:
.LBE1177:
	.loc 1 2588 4
	movaps	%xmm0, -1920(%rbp)
	movdqa	-1904(%rbp), %xmm0
	movaps	%xmm0, -5376(%rbp)
	movdqa	-112(%rbp), %xmm0
	movaps	%xmm0, -5392(%rbp)
.LBB1179:
.LBB1180:
	.loc 2 1126 19
	movdqa	-5392(%rbp), %xmm0
	movdqa	-5376(%rbp), %xmm1
	pmaddwd	%xmm1, %xmm0
.LBE1180:
.LBE1179:
	.loc 1 2588 4
	movaps	%xmm0, -1936(%rbp)
	movdqa	-1888(%rbp), %xmm0
	movaps	%xmm0, -5344(%rbp)
	movdqa	-128(%rbp), %xmm0
	movaps	%xmm0, -5360(%rbp)
.LBB1181:
.LBB1182:
	.loc 2 1126 19
	movdqa	-5360(%rbp), %xmm0
	movdqa	-5344(%rbp), %xmm1
	pmaddwd	%xmm1, %xmm0
.LBE1182:
.LBE1181:
	.loc 1 2588 4
	movaps	%xmm0, -1952(%rbp)
	movdqa	-1904(%rbp), %xmm0
	movaps	%xmm0, -5312(%rbp)
	movdqa	-128(%rbp), %xmm0
	movaps	%xmm0, -5328(%rbp)
.LBB1183:
.LBB1184:
	.loc 2 1126 19
	movdqa	-5328(%rbp), %xmm0
	movdqa	-5312(%rbp), %xmm1
	pmaddwd	%xmm1, %xmm0
.LBE1184:
.LBE1183:
	.loc 1 2588 4
	movaps	%xmm0, -1968(%rbp)
	movdqa	-192(%rbp), %xmm0
	movaps	%xmm0, -5280(%rbp)
	movdqa	-288(%rbp), %xmm0
	movaps	%xmm0, -5296(%rbp)
.LBB1185:
.LBB1186:
	.loc 2 1036 21
	movdqa	-5280(%rbp), %xmm1
	.loc 2 1036 35
	movdqa	-5296(%rbp), %xmm0
	.loc 2 1036 33
	paddw	%xmm1, %xmm0
.LBE1186:
.LBE1185:
	.loc 1 2588 4
	movaps	%xmm0, -1984(%rbp)
	movdqa	-224(%rbp), %xmm0
	movaps	%xmm0, -5248(%rbp)
	movdqa	-256(%rbp), %xmm0
	movaps	%xmm0, -5264(%rbp)
.LBB1187:
.LBB1188:
	.loc 2 1036 21
	movdqa	-5248(%rbp), %xmm1
	.loc 2 1036 35
	movdqa	-5264(%rbp), %xmm0
	.loc 2 1036 33
	paddw	%xmm1, %xmm0
.LBE1188:
.LBE1187:
	.loc 1 2588 4
	movaps	%xmm0, -2000(%rbp)
	movdqa	-1984(%rbp), %xmm0
	movaps	%xmm0, -5216(%rbp)
	movdqa	-2000(%rbp), %xmm0
	movaps	%xmm0, -5232(%rbp)
.LBB1189:
.LBB1190:
	.loc 2 1012 19
	movdqa	-5232(%rbp), %xmm1
	movdqa	-5216(%rbp), %xmm0
	punpcklwd	%xmm1, %xmm0
.LBE1190:
.LBE1189:
	.loc 1 2588 4
	movaps	%xmm0, -2016(%rbp)
	movdqa	-1984(%rbp), %xmm0
	movaps	%xmm0, -5184(%rbp)
	movdqa	-2000(%rbp), %xmm0
	movaps	%xmm0, -5200(%rbp)
.LBB1191:
.LBB1192:
	.loc 2 988 19
	movdqa	-5200(%rbp), %xmm1
	movdqa	-5184(%rbp), %xmm0
	punpckhwd	%xmm1, %xmm0
.LBE1192:
.LBE1191:
	.loc 1 2588 4
	movaps	%xmm0, -2032(%rbp)
	movdqa	-2016(%rbp), %xmm0
	movaps	%xmm0, -5152(%rbp)
	movdqa	-48(%rbp), %xmm0
	movaps	%xmm0, -5168(%rbp)
.LBB1193:
.LBB1194:
	.loc 2 1126 19
	movdqa	-5168(%rbp), %xmm0
	movdqa	-5152(%rbp), %xmm1
	pmaddwd	%xmm1, %xmm0
.LBE1194:
.LBE1193:
	.loc 1 2588 4
	movaps	%xmm0, -2048(%rbp)
	movdqa	-2032(%rbp), %xmm0
	movaps	%xmm0, -5120(%rbp)
	movdqa	-48(%rbp), %xmm0
	movaps	%xmm0, -5136(%rbp)
.LBB1195:
.LBB1196:
	.loc 2 1126 19
	movdqa	-5136(%rbp), %xmm0
	movdqa	-5120(%rbp), %xmm1
	pmaddwd	%xmm1, %xmm0
.LBE1196:
.LBE1195:
	.loc 1 2588 4
	movaps	%xmm0, -2064(%rbp)
	movdqa	-2016(%rbp), %xmm0
	movaps	%xmm0, -5088(%rbp)
	movdqa	-64(%rbp), %xmm0
	movaps	%xmm0, -5104(%rbp)
.LBB1197:
.LBB1198:
	.loc 2 1126 19
	movdqa	-5104(%rbp), %xmm0
	movdqa	-5088(%rbp), %xmm1
	pmaddwd	%xmm1, %xmm0
.LBE1198:
.LBE1197:
	.loc 1 2588 4
	movaps	%xmm0, -2080(%rbp)
	movdqa	-2032(%rbp), %xmm0
	movaps	%xmm0, -5056(%rbp)
	movdqa	-64(%rbp), %xmm0
	movaps	%xmm0, -5072(%rbp)
.LBB1199:
.LBB1200:
	.loc 2 1126 19
	movdqa	-5072(%rbp), %xmm0
	movdqa	-5056(%rbp), %xmm1
	pmaddwd	%xmm1, %xmm0
.LBE1200:
.LBE1199:
	.loc 1 2588 4
	movaps	%xmm0, -2096(%rbp)
	movdqa	-1824(%rbp), %xmm0
	movaps	%xmm0, -5024(%rbp)
	movdqa	-2048(%rbp), %xmm0
	movaps	%xmm0, -5040(%rbp)
.LBB1201:
.LBB1202:
	.loc 2 1042 21
	movdqa	-5024(%rbp), %xmm1
	.loc 2 1042 35
	movdqa	-5040(%rbp), %xmm0
	.loc 2 1042 33
	paddd	%xmm1, %xmm0
.LBE1202:
.LBE1201:
	.loc 1 2588 4
	movaps	%xmm0, -2112(%rbp)
	movdqa	-1840(%rbp), %xmm0
	movaps	%xmm0, -4992(%rbp)
	movdqa	-2064(%rbp), %xmm0
	movaps	%xmm0, -5008(%rbp)
.LBB1203:
.LBB1204:
	.loc 2 1042 21
	movdqa	-4992(%rbp), %xmm1
	.loc 2 1042 35
	movdqa	-5008(%rbp), %xmm0
	.loc 2 1042 33
	paddd	%xmm1, %xmm0
.LBE1204:
.LBE1203:
	.loc 1 2588 4
	movaps	%xmm0, -2128(%rbp)
	movdqa	-1920(%rbp), %xmm0
	movaps	%xmm0, -4960(%rbp)
	movdqa	-2080(%rbp), %xmm0
	movaps	%xmm0, -4976(%rbp)
.LBB1205:
.LBB1206:
	.loc 2 1042 21
	movdqa	-4960(%rbp), %xmm1
	.loc 2 1042 35
	movdqa	-4976(%rbp), %xmm0
	.loc 2 1042 33
	paddd	%xmm1, %xmm0
.LBE1206:
.LBE1205:
	.loc 1 2588 4
	movaps	%xmm0, -2144(%rbp)
	movdqa	-1936(%rbp), %xmm0
	movaps	%xmm0, -4928(%rbp)
	movdqa	-2096(%rbp), %xmm0
	movaps	%xmm0, -4944(%rbp)
.LBB1207:
.LBB1208:
	.loc 2 1042 21
	movdqa	-4928(%rbp), %xmm1
	.loc 2 1042 35
	movdqa	-4944(%rbp), %xmm0
	.loc 2 1042 33
	paddd	%xmm1, %xmm0
.LBE1208:
.LBE1207:
	.loc 1 2588 4
	movaps	%xmm0, -2160(%rbp)
	movdqa	-1856(%rbp), %xmm0
	movaps	%xmm0, -4896(%rbp)
	movdqa	-2080(%rbp), %xmm0
	movaps	%xmm0, -4912(%rbp)
.LBB1209:
.LBB1210:
	.loc 2 1042 21
	movdqa	-4896(%rbp), %xmm1
	.loc 2 1042 35
	movdqa	-4912(%rbp), %xmm0
	.loc 2 1042 33
	paddd	%xmm1, %xmm0
.LBE1210:
.LBE1209:
	.loc 1 2588 4
	movaps	%xmm0, -2176(%rbp)
	movdqa	-1872(%rbp), %xmm0
	movaps	%xmm0, -4864(%rbp)
	movdqa	-2096(%rbp), %xmm0
	movaps	%xmm0, -4880(%rbp)
.LBB1211:
.LBB1212:
	.loc 2 1042 21
	movdqa	-4864(%rbp), %xmm1
	.loc 2 1042 35
	movdqa	-4880(%rbp), %xmm0
	.loc 2 1042 33
	paddd	%xmm1, %xmm0
.LBE1212:
.LBE1211:
	.loc 1 2588 4
	movaps	%xmm0, -2192(%rbp)
	movdqa	-1952(%rbp), %xmm0
	movaps	%xmm0, -4832(%rbp)
	movdqa	-2048(%rbp), %xmm0
	movaps	%xmm0, -4848(%rbp)
.LBB1213:
.LBB1214:
	.loc 2 1042 21
	movdqa	-4832(%rbp), %xmm1
	.loc 2 1042 35
	movdqa	-4848(%rbp), %xmm0
	.loc 2 1042 33
	paddd	%xmm1, %xmm0
.LBE1214:
.LBE1213:
	.loc 1 2588 4
	movaps	%xmm0, -2208(%rbp)
	movdqa	-1968(%rbp), %xmm0
	movaps	%xmm0, -4800(%rbp)
	movdqa	-2064(%rbp), %xmm0
	movaps	%xmm0, -4816(%rbp)
.LBB1215:
.LBB1216:
	.loc 2 1042 21
	movdqa	-4800(%rbp), %xmm1
	.loc 2 1042 35
	movdqa	-4816(%rbp), %xmm0
	.loc 2 1042 33
	paddd	%xmm1, %xmm0
.LBE1216:
.LBE1215:
	.loc 1 2588 4
	movaps	%xmm0, -2224(%rbp)
	movdqa	-1664(%rbp), %xmm0
	movaps	%xmm0, -4768(%rbp)
	movdqa	-160(%rbp), %xmm0
	movaps	%xmm0, -4784(%rbp)
.LBB1217:
.LBB1218:
.LBB1219:
	.loc 2 1042 21
	movdqa	-4768(%rbp), %xmm1
	.loc 2 1042 35
	movdqa	-4784(%rbp), %xmm0
	.loc 2 1042 33
	paddd	%xmm1, %xmm0
.LBE1219:
.LBE1218:
	.loc 1 2588 4
	movaps	%xmm0, -2240(%rbp)
	movdqa	-1680(%rbp), %xmm0
	movaps	%xmm0, -4736(%rbp)
	movdqa	-160(%rbp), %xmm0
	movaps	%xmm0, -4752(%rbp)
.LBB1220:
.LBB1221:
	.loc 2 1042 21
	movdqa	-4736(%rbp), %xmm1
	.loc 2 1042 35
	movdqa	-4752(%rbp), %xmm0
	.loc 2 1042 33
	paddd	%xmm1, %xmm0
.LBE1221:
.LBE1220:
	.loc 1 2588 4
	movaps	%xmm0, -2256(%rbp)
	movdqa	-2240(%rbp), %xmm0
	movaps	%xmm0, -4704(%rbp)
	movdqa	-2208(%rbp), %xmm0
	movaps	%xmm0, -4720(%rbp)
.LBB1222:
.LBB1223:
	.loc 2 1042 21
	movdqa	-4704(%rbp), %xmm1
	.loc 2 1042 35
	movdqa	-4720(%rbp), %xmm0
	.loc 2 1042 33
	paddd	%xmm1, %xmm0
.LBE1223:
.LBE1222:
	.loc 1 2588 4
	movaps	%xmm0, -2272(%rbp)
	movdqa	-2256(%rbp), %xmm0
	movaps	%xmm0, -4672(%rbp)
	movdqa	-2224(%rbp), %xmm0
	movaps	%xmm0, -4688(%rbp)
.LBB1224:
.LBB1225:
	.loc 2 1042 21
	movdqa	-4672(%rbp), %xmm1
	.loc 2 1042 35
	movdqa	-4688(%rbp), %xmm0
	.loc 2 1042 33
	paddd	%xmm1, %xmm0
.LBE1225:
.LBE1224:
	.loc 1 2588 4
	movaps	%xmm0, -2288(%rbp)
	movdqa	-2240(%rbp), %xmm0
	movaps	%xmm0, -4640(%rbp)
	movdqa	-2208(%rbp), %xmm0
	movaps	%xmm0, -4656(%rbp)
.LBB1226:
.LBB1227:
	.loc 2 1090 21
	movdqa	-4640(%rbp), %xmm0
	.loc 2 1090 35
	movdqa	-4656(%rbp), %xmm1
	.loc 2 1090 33
	psubd	%xmm1, %xmm0
.LBE1227:
.LBE1226:
	.loc 1 2588 4
	movaps	%xmm0, -2304(%rbp)
	movdqa	-2256(%rbp), %xmm0
	movaps	%xmm0, -4608(%rbp)
	movdqa	-2224(%rbp), %xmm0
	movaps	%xmm0, -4624(%rbp)
.LBB1228:
.LBB1229:
	.loc 2 1090 21
	movdqa	-4608(%rbp), %xmm0
	.loc 2 1090 35
	movdqa	-4624(%rbp), %xmm1
	.loc 2 1090 33
	psubd	%xmm1, %xmm0
.LBE1229:
.LBE1228:
	.loc 1 2588 4
	movaps	%xmm0, -2320(%rbp)
	movdqa	-2288(%rbp), %xmm0
	movaps	%xmm0, -4576(%rbp)
	movl	$17, -4580(%rbp)
.LBB1230:
.LBB1231:
	.loc 2 1180 19
	movdqa	-4576(%rbp), %xmm1
	movd	-4580(%rbp), %xmm0
	psrad	%xmm0, %xmm1
	.loc 2 1180 10
	movdqa	%xmm1, %xmm2
	movdqa	-2272(%rbp), %xmm0
	movaps	%xmm0, -4544(%rbp)
	movl	$17, -4548(%rbp)
.LBE1231:
.LBE1230:
.LBB1232:
.LBB1233:
	.loc 2 1180 19
	movdqa	-4544(%rbp), %xmm1
	movd	-4548(%rbp), %xmm0
	psrad	%xmm0, %xmm1
	.loc 2 1180 10
	movdqa	%xmm1, %xmm0
	movaps	%xmm0, -4512(%rbp)
	movaps	%xmm2, -4528(%rbp)
.LBE1233:
.LBE1232:
.LBB1234:
.LBB1235:
	.loc 2 970 19
	movdqa	-4528(%rbp), %xmm1
	movdqa	-4512(%rbp), %xmm0
	packssdw	%xmm1, %xmm0
.LBE1235:
.LBE1234:
	.loc 1 2588 4
	movaps	%xmm0, -176(%rbp)
	movdqa	-2320(%rbp), %xmm0
	movaps	%xmm0, -4480(%rbp)
	movl	$17, -4484(%rbp)
.LBB1236:
.LBB1237:
	.loc 2 1180 19
	movdqa	-4480(%rbp), %xmm1
	movd	-4484(%rbp), %xmm0
	psrad	%xmm0, %xmm1
	.loc 2 1180 10
	movdqa	%xmm1, %xmm2
	movdqa	-2304(%rbp), %xmm0
	movaps	%xmm0, -4448(%rbp)
	movl	$17, -4452(%rbp)
.LBE1237:
.LBE1236:
.LBB1238:
.LBB1239:
	.loc 2 1180 19
	movdqa	-4448(%rbp), %xmm1
	movd	-4452(%rbp), %xmm0
	psrad	%xmm0, %xmm1
	.loc 2 1180 10
	movdqa	%xmm1, %xmm0
	movaps	%xmm0, -4416(%rbp)
	movaps	%xmm2, -4432(%rbp)
.LBE1239:
.LBE1238:
.LBB1240:
.LBB1241:
	.loc 2 970 19
	movdqa	-4432(%rbp), %xmm1
	movdqa	-4416(%rbp), %xmm0
	packssdw	%xmm1, %xmm0
.LBE1241:
.LBE1240:
	.loc 1 2588 4
	movaps	%xmm0, -288(%rbp)
	movdqa	-1728(%rbp), %xmm0
	movaps	%xmm0, -4384(%rbp)
	movdqa	-160(%rbp), %xmm0
	movaps	%xmm0, -4400(%rbp)
.LBE1217:
.LBB1242:
.LBB1243:
.LBB1244:
	.loc 2 1042 21
	movdqa	-4384(%rbp), %xmm1
	.loc 2 1042 35
	movdqa	-4400(%rbp), %xmm0
	.loc 2 1042 33
	paddd	%xmm1, %xmm0
.LBE1244:
.LBE1243:
	.loc 1 2588 4
	movaps	%xmm0, -2336(%rbp)
	movdqa	-1744(%rbp), %xmm0
	movaps	%xmm0, -4352(%rbp)
	movdqa	-160(%rbp), %xmm0
	movaps	%xmm0, -4368(%rbp)
.LBB1245:
.LBB1246:
	.loc 2 1042 21
	movdqa	-4352(%rbp), %xmm1
	.loc 2 1042 35
	movdqa	-4368(%rbp), %xmm0
	.loc 2 1042 33
	paddd	%xmm1, %xmm0
.LBE1246:
.LBE1245:
	.loc 1 2588 4
	movaps	%xmm0, -2352(%rbp)
	movdqa	-2336(%rbp), %xmm0
	movaps	%xmm0, -4320(%rbp)
	movdqa	-2176(%rbp), %xmm0
	movaps	%xmm0, -4336(%rbp)
.LBB1247:
.LBB1248:
	.loc 2 1042 21
	movdqa	-4320(%rbp), %xmm1
	.loc 2 1042 35
	movdqa	-4336(%rbp), %xmm0
	.loc 2 1042 33
	paddd	%xmm1, %xmm0
.LBE1248:
.LBE1247:
	.loc 1 2588 4
	movaps	%xmm0, -2368(%rbp)
	movdqa	-2352(%rbp), %xmm0
	movaps	%xmm0, -4288(%rbp)
	movdqa	-2192(%rbp), %xmm0
	movaps	%xmm0, -4304(%rbp)
.LBB1249:
.LBB1250:
	.loc 2 1042 21
	movdqa	-4288(%rbp), %xmm1
	.loc 2 1042 35
	movdqa	-4304(%rbp), %xmm0
	.loc 2 1042 33
	paddd	%xmm1, %xmm0
.LBE1250:
.LBE1249:
	.loc 1 2588 4
	movaps	%xmm0, -2384(%rbp)
	movdqa	-2336(%rbp), %xmm0
	movaps	%xmm0, -4256(%rbp)
	movdqa	-2176(%rbp), %xmm0
	movaps	%xmm0, -4272(%rbp)
.LBB1251:
.LBB1252:
	.loc 2 1090 21
	movdqa	-4256(%rbp), %xmm0
	.loc 2 1090 35
	movdqa	-4272(%rbp), %xmm1
	.loc 2 1090 33
	psubd	%xmm1, %xmm0
.LBE1252:
.LBE1251:
	.loc 1 2588 4
	movaps	%xmm0, -2400(%rbp)
	movdqa	-2352(%rbp), %xmm0
	movaps	%xmm0, -4224(%rbp)
	movdqa	-2192(%rbp), %xmm0
	movaps	%xmm0, -4240(%rbp)
.LBB1253:
.LBB1254:
	.loc 2 1090 21
	movdqa	-4224(%rbp), %xmm0
	.loc 2 1090 35
	movdqa	-4240(%rbp), %xmm1
	.loc 2 1090 33
	psubd	%xmm1, %xmm0
.LBE1254:
.LBE1253:
	.loc 1 2588 4
	movaps	%xmm0, -2416(%rbp)
	movdqa	-2384(%rbp), %xmm0
	movaps	%xmm0, -4192(%rbp)
	movl	$17, -4196(%rbp)
.LBB1255:
.LBB1256:
	.loc 2 1180 19
	movdqa	-4192(%rbp), %xmm1
	movd	-4196(%rbp), %xmm0
	psrad	%xmm0, %xmm1
	.loc 2 1180 10
	movdqa	%xmm1, %xmm2
	movdqa	-2368(%rbp), %xmm0
	movaps	%xmm0, -4160(%rbp)
	movl	$17, -4164(%rbp)
.LBE1256:
.LBE1255:
.LBB1257:
.LBB1258:
	.loc 2 1180 19
	movdqa	-4160(%rbp), %xmm1
	movd	-4164(%rbp), %xmm0
	psrad	%xmm0, %xmm1
	.loc 2 1180 10
	movdqa	%xmm1, %xmm0
	movaps	%xmm0, -4128(%rbp)
	movaps	%xmm2, -4144(%rbp)
.LBE1258:
.LBE1257:
.LBB1259:
.LBB1260:
	.loc 2 970 19
	movdqa	-4144(%rbp), %xmm1
	movdqa	-4128(%rbp), %xmm0
	packssdw	%xmm1, %xmm0
.LBE1260:
.LBE1259:
	.loc 1 2588 4
	movaps	%xmm0, -192(%rbp)
	movdqa	-2416(%rbp), %xmm0
	movaps	%xmm0, -4096(%rbp)
	movl	$17, -4100(%rbp)
.LBB1261:
.LBB1262:
	.loc 2 1180 19
	movdqa	-4096(%rbp), %xmm1
	movd	-4100(%rbp), %xmm0
	psrad	%xmm0, %xmm1
	.loc 2 1180 10
	movdqa	%xmm1, %xmm2
	movdqa	-2400(%rbp), %xmm0
	movaps	%xmm0, -4064(%rbp)
	movl	$17, -4068(%rbp)
.LBE1262:
.LBE1261:
.LBB1263:
.LBB1264:
	.loc 2 1180 19
	movdqa	-4064(%rbp), %xmm1
	movd	-4068(%rbp), %xmm0
	psrad	%xmm0, %xmm1
	.loc 2 1180 10
	movdqa	%xmm1, %xmm0
	movaps	%xmm0, -4032(%rbp)
	movaps	%xmm2, -4048(%rbp)
.LBE1264:
.LBE1263:
.LBB1265:
.LBB1266:
	.loc 2 970 19
	movdqa	-4048(%rbp), %xmm1
	movdqa	-4032(%rbp), %xmm0
	packssdw	%xmm1, %xmm0
.LBE1266:
.LBE1265:
	.loc 1 2588 4
	movaps	%xmm0, -272(%rbp)
	movdqa	-1760(%rbp), %xmm0
	movaps	%xmm0, -4000(%rbp)
	movdqa	-160(%rbp), %xmm0
	movaps	%xmm0, -4016(%rbp)
.LBE1242:
.LBB1267:
.LBB1268:
.LBB1269:
	.loc 2 1042 21
	movdqa	-4000(%rbp), %xmm1
	.loc 2 1042 35
	movdqa	-4016(%rbp), %xmm0
	.loc 2 1042 33
	paddd	%xmm1, %xmm0
.LBE1269:
.LBE1268:
	.loc 1 2588 4
	movaps	%xmm0, -2432(%rbp)
	movdqa	-1776(%rbp), %xmm0
	movaps	%xmm0, -3968(%rbp)
	movdqa	-160(%rbp), %xmm0
	movaps	%xmm0, -3984(%rbp)
.LBB1270:
.LBB1271:
	.loc 2 1042 21
	movdqa	-3968(%rbp), %xmm1
	.loc 2 1042 35
	movdqa	-3984(%rbp), %xmm0
	.loc 2 1042 33
	paddd	%xmm1, %xmm0
.LBE1271:
.LBE1270:
	.loc 1 2588 4
	movaps	%xmm0, -2448(%rbp)
	movdqa	-2432(%rbp), %xmm0
	movaps	%xmm0, -3936(%rbp)
	movdqa	-2144(%rbp), %xmm0
	movaps	%xmm0, -3952(%rbp)
.LBB1272:
.LBB1273:
	.loc 2 1042 21
	movdqa	-3936(%rbp), %xmm1
	.loc 2 1042 35
	movdqa	-3952(%rbp), %xmm0
	.loc 2 1042 33
	paddd	%xmm1, %xmm0
.LBE1273:
.LBE1272:
	.loc 1 2588 4
	movaps	%xmm0, -2464(%rbp)
	movdqa	-2448(%rbp), %xmm0
	movaps	%xmm0, -3904(%rbp)
	movdqa	-2160(%rbp), %xmm0
	movaps	%xmm0, -3920(%rbp)
.LBB1274:
.LBB1275:
	.loc 2 1042 21
	movdqa	-3904(%rbp), %xmm1
	.loc 2 1042 35
	movdqa	-3920(%rbp), %xmm0
	.loc 2 1042 33
	paddd	%xmm1, %xmm0
.LBE1275:
.LBE1274:
	.loc 1 2588 4
	movaps	%xmm0, -2480(%rbp)
	movdqa	-2432(%rbp), %xmm0
	movaps	%xmm0, -3872(%rbp)
	movdqa	-2144(%rbp), %xmm0
	movaps	%xmm0, -3888(%rbp)
.LBB1276:
.LBB1277:
	.loc 2 1090 21
	movdqa	-3872(%rbp), %xmm0
	.loc 2 1090 35
	movdqa	-3888(%rbp), %xmm1
	.loc 2 1090 33
	psubd	%xmm1, %xmm0
.LBE1277:
.LBE1276:
	.loc 1 2588 4
	movaps	%xmm0, -2496(%rbp)
	movdqa	-2448(%rbp), %xmm0
	movaps	%xmm0, -3840(%rbp)
	movdqa	-2160(%rbp), %xmm0
	movaps	%xmm0, -3856(%rbp)
.LBB1278:
.LBB1279:
	.loc 2 1090 21
	movdqa	-3840(%rbp), %xmm0
	.loc 2 1090 35
	movdqa	-3856(%rbp), %xmm1
	.loc 2 1090 33
	psubd	%xmm1, %xmm0
.LBE1279:
.LBE1278:
	.loc 1 2588 4
	movaps	%xmm0, -2512(%rbp)
	movdqa	-2480(%rbp), %xmm0
	movaps	%xmm0, -3808(%rbp)
	movl	$17, -3812(%rbp)
.LBB1280:
.LBB1281:
	.loc 2 1180 19
	movdqa	-3808(%rbp), %xmm1
	movd	-3812(%rbp), %xmm0
	psrad	%xmm0, %xmm1
	.loc 2 1180 10
	movdqa	%xmm1, %xmm2
	movdqa	-2464(%rbp), %xmm0
	movaps	%xmm0, -3776(%rbp)
	movl	$17, -3780(%rbp)
.LBE1281:
.LBE1280:
.LBB1282:
.LBB1283:
	.loc 2 1180 19
	movdqa	-3776(%rbp), %xmm1
	movd	-3780(%rbp), %xmm0
	psrad	%xmm0, %xmm1
	.loc 2 1180 10
	movdqa	%xmm1, %xmm0
	movaps	%xmm0, -3744(%rbp)
	movaps	%xmm2, -3760(%rbp)
.LBE1283:
.LBE1282:
.LBB1284:
.LBB1285:
	.loc 2 970 19
	movdqa	-3760(%rbp), %xmm1
	movdqa	-3744(%rbp), %xmm0
	packssdw	%xmm1, %xmm0
.LBE1285:
.LBE1284:
	.loc 1 2588 4
	movaps	%xmm0, -208(%rbp)
	movdqa	-2512(%rbp), %xmm0
	movaps	%xmm0, -3712(%rbp)
	movl	$17, -3716(%rbp)
.LBB1286:
.LBB1287:
	.loc 2 1180 19
	movdqa	-3712(%rbp), %xmm1
	movd	-3716(%rbp), %xmm0
	psrad	%xmm0, %xmm1
	.loc 2 1180 10
	movdqa	%xmm1, %xmm2
	movdqa	-2496(%rbp), %xmm0
	movaps	%xmm0, -3680(%rbp)
	movl	$17, -3684(%rbp)
.LBE1287:
.LBE1286:
.LBB1288:
.LBB1289:
	.loc 2 1180 19
	movdqa	-3680(%rbp), %xmm1
	movd	-3684(%rbp), %xmm0
	psrad	%xmm0, %xmm1
	.loc 2 1180 10
	movdqa	%xmm1, %xmm0
	movaps	%xmm0, -3648(%rbp)
	movaps	%xmm2, -3664(%rbp)
.LBE1289:
.LBE1288:
.LBB1290:
.LBB1291:
	.loc 2 970 19
	movdqa	-3664(%rbp), %xmm1
	movdqa	-3648(%rbp), %xmm0
	packssdw	%xmm1, %xmm0
.LBE1291:
.LBE1290:
	.loc 1 2588 4
	movaps	%xmm0, -256(%rbp)
	movdqa	-1696(%rbp), %xmm0
	movaps	%xmm0, -3616(%rbp)
	movdqa	-160(%rbp), %xmm0
	movaps	%xmm0, -3632(%rbp)
.LBE1267:
.LBB1292:
.LBB1293:
.LBB1294:
	.loc 2 1042 21
	movdqa	-3616(%rbp), %xmm1
	.loc 2 1042 35
	movdqa	-3632(%rbp), %xmm0
	.loc 2 1042 33
	paddd	%xmm1, %xmm0
.LBE1294:
.LBE1293:
	.loc 1 2588 4
	movaps	%xmm0, -2528(%rbp)
	movdqa	-1712(%rbp), %xmm0
	movaps	%xmm0, -3584(%rbp)
	movdqa	-160(%rbp), %xmm0
	movaps	%xmm0, -3600(%rbp)
.LBB1295:
.LBB1296:
	.loc 2 1042 21
	movdqa	-3584(%rbp), %xmm1
	.loc 2 1042 35
	movdqa	-3600(%rbp), %xmm0
	.loc 2 1042 33
	paddd	%xmm1, %xmm0
.LBE1296:
.LBE1295:
	.loc 1 2588 4
	movaps	%xmm0, -2544(%rbp)
	movdqa	-2528(%rbp), %xmm0
	movaps	%xmm0, -3552(%rbp)
	movdqa	-2112(%rbp), %xmm0
	movaps	%xmm0, -3568(%rbp)
.LBB1297:
.LBB1298:
	.loc 2 1042 21
	movdqa	-3552(%rbp), %xmm1
	.loc 2 1042 35
	movdqa	-3568(%rbp), %xmm0
	.loc 2 1042 33
	paddd	%xmm1, %xmm0
.LBE1298:
.LBE1297:
	.loc 1 2588 4
	movaps	%xmm0, -2560(%rbp)
	movdqa	-2544(%rbp), %xmm0
	movaps	%xmm0, -3520(%rbp)
	movdqa	-2128(%rbp), %xmm0
	movaps	%xmm0, -3536(%rbp)
.LBB1299:
.LBB1300:
	.loc 2 1042 21
	movdqa	-3520(%rbp), %xmm1
	.loc 2 1042 35
	movdqa	-3536(%rbp), %xmm0
	.loc 2 1042 33
	paddd	%xmm1, %xmm0
.LBE1300:
.LBE1299:
	.loc 1 2588 4
	movaps	%xmm0, -2576(%rbp)
	movdqa	-2528(%rbp), %xmm0
	movaps	%xmm0, -3488(%rbp)
	movdqa	-2112(%rbp), %xmm0
	movaps	%xmm0, -3504(%rbp)
.LBB1301:
.LBB1302:
	.loc 2 1090 21
	movdqa	-3488(%rbp), %xmm0
	.loc 2 1090 35
	movdqa	-3504(%rbp), %xmm1
	.loc 2 1090 33
	psubd	%xmm1, %xmm0
.LBE1302:
.LBE1301:
	.loc 1 2588 4
	movaps	%xmm0, -2592(%rbp)
	movdqa	-2544(%rbp), %xmm0
	movaps	%xmm0, -3456(%rbp)
	movdqa	-2128(%rbp), %xmm0
	movaps	%xmm0, -3472(%rbp)
.LBB1303:
.LBB1304:
	.loc 2 1090 21
	movdqa	-3456(%rbp), %xmm0
	.loc 2 1090 35
	movdqa	-3472(%rbp), %xmm1
	.loc 2 1090 33
	psubd	%xmm1, %xmm0
.LBE1304:
.LBE1303:
	.loc 1 2588 4
	movaps	%xmm0, -2608(%rbp)
	movdqa	-2576(%rbp), %xmm0
	movaps	%xmm0, -3424(%rbp)
	movl	$17, -3428(%rbp)
.LBB1305:
.LBB1306:
	.loc 2 1180 19
	movdqa	-3424(%rbp), %xmm1
	movd	-3428(%rbp), %xmm0
	psrad	%xmm0, %xmm1
	.loc 2 1180 10
	movdqa	%xmm1, %xmm2
	movdqa	-2560(%rbp), %xmm0
	movaps	%xmm0, -3392(%rbp)
	movl	$17, -3396(%rbp)
.LBE1306:
.LBE1305:
.LBB1307:
.LBB1308:
	.loc 2 1180 19
	movdqa	-3392(%rbp), %xmm1
	movd	-3396(%rbp), %xmm0
	psrad	%xmm0, %xmm1
	.loc 2 1180 10
	movdqa	%xmm1, %xmm0
	movaps	%xmm0, -3360(%rbp)
	movaps	%xmm2, -3376(%rbp)
.LBE1308:
.LBE1307:
.LBB1309:
.LBB1310:
	.loc 2 970 19
	movdqa	-3376(%rbp), %xmm1
	movdqa	-3360(%rbp), %xmm0
	packssdw	%xmm1, %xmm0
.LBE1310:
.LBE1309:
	.loc 1 2588 4
	movaps	%xmm0, -224(%rbp)
	movdqa	-2608(%rbp), %xmm0
	movaps	%xmm0, -3328(%rbp)
	movl	$17, -3332(%rbp)
.LBB1311:
.LBB1312:
	.loc 2 1180 19
	movdqa	-3328(%rbp), %xmm1
	movd	-3332(%rbp), %xmm0
	psrad	%xmm0, %xmm1
	.loc 2 1180 10
	movdqa	%xmm1, %xmm2
	movdqa	-2592(%rbp), %xmm0
	movaps	%xmm0, -3296(%rbp)
	movl	$17, -3300(%rbp)
.LBE1312:
.LBE1311:
.LBB1313:
.LBB1314:
	.loc 2 1180 19
	movdqa	-3296(%rbp), %xmm1
	movd	-3300(%rbp), %xmm0
	psrad	%xmm0, %xmm1
	.loc 2 1180 10
	movdqa	%xmm1, %xmm0
	movaps	%xmm0, -3264(%rbp)
	movaps	%xmm2, -3280(%rbp)
.LBE1314:
.LBE1313:
.LBB1315:
.LBB1316:
	.loc 2 970 19
	movdqa	-3280(%rbp), %xmm1
	movdqa	-3264(%rbp), %xmm0
	packssdw	%xmm1, %xmm0
.LBE1316:
.LBE1315:
	.loc 1 2588 4
	movaps	%xmm0, -240(%rbp)
	movdqa	-176(%rbp), %xmm0
	movaps	%xmm0, -3232(%rbp)
	movdqa	-192(%rbp), %xmm0
	movaps	%xmm0, -3248(%rbp)
.LBE1292:
.LBE1104:
.LBB1317:
.LBB1318:
.LBB1319:
	.loc 2 976 19
	movdqa	-3248(%rbp), %xmm1
	movdqa	-3232(%rbp), %xmm0
	packuswb	%xmm1, %xmm0
.LBE1319:
.LBE1318:
	.loc 1 2592 20
	movaps	%xmm0, -2624(%rbp)
	movdqa	-208(%rbp), %xmm0
	movaps	%xmm0, -3200(%rbp)
	movdqa	-224(%rbp), %xmm0
	movaps	%xmm0, -3216(%rbp)
.LBB1320:
.LBB1321:
	.loc 2 976 19
	movdqa	-3216(%rbp), %xmm1
	movdqa	-3200(%rbp), %xmm0
	packuswb	%xmm1, %xmm0
.LBE1321:
.LBE1320:
	.loc 1 2593 20
	movaps	%xmm0, -2640(%rbp)
	movdqa	-240(%rbp), %xmm0
	movaps	%xmm0, -3168(%rbp)
	movdqa	-256(%rbp), %xmm0
	movaps	%xmm0, -3184(%rbp)
.LBB1322:
.LBB1323:
	.loc 2 976 19
	movdqa	-3184(%rbp), %xmm1
	movdqa	-3168(%rbp), %xmm0
	packuswb	%xmm1, %xmm0
.LBE1323:
.LBE1322:
	.loc 1 2594 20
	movaps	%xmm0, -2656(%rbp)
	movdqa	-272(%rbp), %xmm0
	movaps	%xmm0, -3136(%rbp)
	movdqa	-288(%rbp), %xmm0
	movaps	%xmm0, -3152(%rbp)
.LBB1324:
.LBB1325:
	.loc 2 976 19
	movdqa	-3152(%rbp), %xmm1
	movdqa	-3136(%rbp), %xmm0
	packuswb	%xmm1, %xmm0
.LBE1325:
.LBE1324:
	.loc 1 2595 20
	movaps	%xmm0, -2672(%rbp)
	.loc 1 2598 7
	movdqa	-2624(%rbp), %xmm0
	movaps	%xmm0, -1456(%rbp)
	movdqa	-2624(%rbp), %xmm0
	movaps	%xmm0, -3104(%rbp)
	movdqa	-2656(%rbp), %xmm0
	movaps	%xmm0, -3120(%rbp)
.LBB1326:
.LBB1327:
	.loc 2 1006 19
	movdqa	-3120(%rbp), %xmm1
	movdqa	-3104(%rbp), %xmm0
	punpcklbw	%xmm1, %xmm0
.LBE1327:
.LBE1326:
	.loc 1 2598 7
	movaps	%xmm0, -2624(%rbp)
	movdqa	-1456(%rbp), %xmm0
	movaps	%xmm0, -3072(%rbp)
	movdqa	-2656(%rbp), %xmm0
	movaps	%xmm0, -3088(%rbp)
.LBB1328:
.LBB1329:
	.loc 2 982 19
	movdqa	-3088(%rbp), %xmm1
	movdqa	-3072(%rbp), %xmm0
	punpckhbw	%xmm1, %xmm0
.LBE1329:
.LBE1328:
	.loc 1 2598 7
	movaps	%xmm0, -2656(%rbp)
	.loc 1 2599 7
	movdqa	-2640(%rbp), %xmm0
	movaps	%xmm0, -1456(%rbp)
	movdqa	-2640(%rbp), %xmm0
	movaps	%xmm0, -3040(%rbp)
	movdqa	-2672(%rbp), %xmm0
	movaps	%xmm0, -3056(%rbp)
.LBB1330:
.LBB1331:
	.loc 2 1006 19
	movdqa	-3056(%rbp), %xmm1
	movdqa	-3040(%rbp), %xmm0
	punpcklbw	%xmm1, %xmm0
.LBE1331:
.LBE1330:
	.loc 1 2599 7
	movaps	%xmm0, -2640(%rbp)
	movdqa	-1456(%rbp), %xmm0
	movaps	%xmm0, -3008(%rbp)
	movdqa	-2672(%rbp), %xmm0
	movaps	%xmm0, -3024(%rbp)
.LBB1332:
.LBB1333:
	.loc 2 982 19
	movdqa	-3024(%rbp), %xmm1
	movdqa	-3008(%rbp), %xmm0
	punpckhbw	%xmm1, %xmm0
.LBE1333:
.LBE1332:
	.loc 1 2599 7
	movaps	%xmm0, -2672(%rbp)
	.loc 1 2602 7
	movdqa	-2624(%rbp), %xmm0
	movaps	%xmm0, -1456(%rbp)
	movdqa	-2624(%rbp), %xmm0
	movaps	%xmm0, -2976(%rbp)
	movdqa	-2640(%rbp), %xmm0
	movaps	%xmm0, -2992(%rbp)
.LBB1334:
.LBB1335:
	.loc 2 1006 19
	movdqa	-2992(%rbp), %xmm1
	movdqa	-2976(%rbp), %xmm0
	punpcklbw	%xmm1, %xmm0
.LBE1335:
.LBE1334:
	.loc 1 2602 7
	movaps	%xmm0, -2624(%rbp)
	movdqa	-1456(%rbp), %xmm0
	movaps	%xmm0, -2944(%rbp)
	movdqa	-2640(%rbp), %xmm0
	movaps	%xmm0, -2960(%rbp)
.LBB1336:
.LBB1337:
	.loc 2 982 19
	movdqa	-2960(%rbp), %xmm1
	movdqa	-2944(%rbp), %xmm0
	punpckhbw	%xmm1, %xmm0
.LBE1337:
.LBE1336:
	.loc 1 2602 7
	movaps	%xmm0, -2640(%rbp)
	.loc 1 2603 7
	movdqa	-2656(%rbp), %xmm0
	movaps	%xmm0, -1456(%rbp)
	movdqa	-2656(%rbp), %xmm0
	movaps	%xmm0, -2912(%rbp)
	movdqa	-2672(%rbp), %xmm0
	movaps	%xmm0, -2928(%rbp)
.LBB1338:
.LBB1339:
	.loc 2 1006 19
	movdqa	-2928(%rbp), %xmm1
	movdqa	-2912(%rbp), %xmm0
	punpcklbw	%xmm1, %xmm0
.LBE1339:
.LBE1338:
	.loc 1 2603 7
	movaps	%xmm0, -2656(%rbp)
	movdqa	-1456(%rbp), %xmm0
	movaps	%xmm0, -2880(%rbp)
	movdqa	-2672(%rbp), %xmm0
	movaps	%xmm0, -2896(%rbp)
.LBB1340:
.LBB1341:
	.loc 2 982 19
	movdqa	-2896(%rbp), %xmm1
	movdqa	-2880(%rbp), %xmm0
	punpckhbw	%xmm1, %xmm0
.LBE1341:
.LBE1340:
	.loc 1 2603 7
	movaps	%xmm0, -2672(%rbp)
	.loc 1 2606 7
	movdqa	-2624(%rbp), %xmm0
	movaps	%xmm0, -1456(%rbp)
	movdqa	-2624(%rbp), %xmm0
	movaps	%xmm0, -2848(%rbp)
	movdqa	-2656(%rbp), %xmm0
	movaps	%xmm0, -2864(%rbp)
.LBB1342:
.LBB1343:
	.loc 2 1006 19
	movdqa	-2864(%rbp), %xmm1
	movdqa	-2848(%rbp), %xmm0
	punpcklbw	%xmm1, %xmm0
.LBE1343:
.LBE1342:
	.loc 1 2606 7
	movaps	%xmm0, -2624(%rbp)
	movdqa	-1456(%rbp), %xmm0
	movaps	%xmm0, -2816(%rbp)
	movdqa	-2656(%rbp), %xmm0
	movaps	%xmm0, -2832(%rbp)
.LBB1344:
.LBB1345:
	.loc 2 982 19
	movdqa	-2832(%rbp), %xmm1
	movdqa	-2816(%rbp), %xmm0
	punpckhbw	%xmm1, %xmm0
.LBE1345:
.LBE1344:
	.loc 1 2606 7
	movaps	%xmm0, -2656(%rbp)
	.loc 1 2607 7
	movdqa	-2640(%rbp), %xmm0
	movaps	%xmm0, -1456(%rbp)
	movdqa	-2640(%rbp), %xmm0
	movaps	%xmm0, -2784(%rbp)
	movdqa	-2672(%rbp), %xmm0
	movaps	%xmm0, -2800(%rbp)
.LBB1346:
.LBB1347:
	.loc 2 1006 19
	movdqa	-2800(%rbp), %xmm1
	movdqa	-2784(%rbp), %xmm0
	punpcklbw	%xmm1, %xmm0
.LBE1347:
.LBE1346:
	.loc 1 2607 7
	movaps	%xmm0, -2640(%rbp)
	movdqa	-1456(%rbp), %xmm0
	movaps	%xmm0, -2752(%rbp)
	movdqa	-2672(%rbp), %xmm0
	movaps	%xmm0, -2768(%rbp)
.LBB1348:
.LBB1349:
	.loc 2 982 19
	movdqa	-2768(%rbp), %xmm1
	movdqa	-2752(%rbp), %xmm0
	punpckhbw	%xmm1, %xmm0
.LBE1349:
.LBE1348:
	.loc 1 2607 7
	movaps	%xmm0, -2672(%rbp)
	movq	-10920(%rbp), %rax
	movq	%rax, -2736(%rbp)
	movdqa	-2624(%rbp), %xmm0
	movaps	%xmm0, -10800(%rbp)
.LBB1350:
.LBB1351:
	.loc 2 733 42
	movq	-10800(%rbp), %rax
	.loc 2 733 21
	movq	%rax, %rdx
	.loc 2 733 19
	movq	-2736(%rbp), %rax
	movq	%rdx, (%rax)
	.loc 2 734 1
	nop
.LBE1351:
.LBE1350:
	.loc 1 2610 50
	movl	-10924(%rbp), %eax
	cltq
	addq	%rax, -10920(%rbp)
	.loc 1 2611 41
	movdqa	-2624(%rbp), %xmm0
	pshufd	$78, %xmm0, %xmm0
	movq	-10920(%rbp), %rax
	movq	%rax, -2728(%rbp)
	movaps	%xmm0, -10816(%rbp)
.LBB1352:
.LBB1353:
	.loc 2 733 42
	movq	-10816(%rbp), %rax
	.loc 2 733 21
	movq	%rax, %rdx
	.loc 2 733 19
	movq	-2728(%rbp), %rax
	movq	%rdx, (%rax)
	.loc 2 734 1
	nop
.LBE1353:
.LBE1352:
	.loc 1 2611 75
	movl	-10924(%rbp), %eax
	cltq
	addq	%rax, -10920(%rbp)
	movq	-10920(%rbp), %rax
	movq	%rax, -2720(%rbp)
	movdqa	-2656(%rbp), %xmm0
	movaps	%xmm0, -10832(%rbp)
.LBB1354:
.LBB1355:
	.loc 2 733 42
	movq	-10832(%rbp), %rax
	.loc 2 733 21
	movq	%rax, %rdx
	.loc 2 733 19
	movq	-2720(%rbp), %rax
	movq	%rdx, (%rax)
	.loc 2 734 1
	nop
.LBE1355:
.LBE1354:
	.loc 1 2612 50
	movl	-10924(%rbp), %eax
	cltq
	addq	%rax, -10920(%rbp)
	.loc 1 2613 41
	movdqa	-2656(%rbp), %xmm0
	pshufd	$78, %xmm0, %xmm0
	movq	-10920(%rbp), %rax
	movq	%rax, -2712(%rbp)
	movaps	%xmm0, -10848(%rbp)
.LBB1356:
.LBB1357:
	.loc 2 733 42
	movq	-10848(%rbp), %rax
	.loc 2 733 21
	movq	%rax, %rdx
	.loc 2 733 19
	movq	-2712(%rbp), %rax
	movq	%rdx, (%rax)
	.loc 2 734 1
	nop
.LBE1357:
.LBE1356:
	.loc 1 2613 75
	movl	-10924(%rbp), %eax
	cltq
	addq	%rax, -10920(%rbp)
	movq	-10920(%rbp), %rax
	movq	%rax, -2704(%rbp)
	movdqa	-2640(%rbp), %xmm0
	movaps	%xmm0, -10864(%rbp)
.LBB1358:
.LBB1359:
	.loc 2 733 42
	movq	-10864(%rbp), %rax
	.loc 2 733 21
	movq	%rax, %rdx
	.loc 2 733 19
	movq	-2704(%rbp), %rax
	movq	%rdx, (%rax)
	.loc 2 734 1
	nop
.LBE1359:
.LBE1358:
	.loc 1 2614 50
	movl	-10924(%rbp), %eax
	cltq
	addq	%rax, -10920(%rbp)
	.loc 1 2615 41
	movdqa	-2640(%rbp), %xmm0
	pshufd	$78, %xmm0, %xmm0
	movq	-10920(%rbp), %rax
	movq	%rax, -2696(%rbp)
	movaps	%xmm0, -10880(%rbp)
.LBB1360:
.LBB1361:
	.loc 2 733 42
	movq	-10880(%rbp), %rax
	.loc 2 733 21
	movq	%rax, %rdx
	.loc 2 733 19
	movq	-2696(%rbp), %rax
	movq	%rdx, (%rax)
	.loc 2 734 1
	nop
.LBE1361:
.LBE1360:
	.loc 1 2615 75
	movl	-10924(%rbp), %eax
	cltq
	addq	%rax, -10920(%rbp)
	movq	-10920(%rbp), %rax
	movq	%rax, -2688(%rbp)
	movdqa	-2672(%rbp), %xmm0
	movaps	%xmm0, -10896(%rbp)
.LBB1362:
.LBB1363:
	.loc 2 733 42
	movq	-10896(%rbp), %rax
	.loc 2 733 21
	movq	%rax, %rdx
	.loc 2 733 19
	movq	-2688(%rbp), %rax
	movq	%rdx, (%rax)
	.loc 2 734 1
	nop
.LBE1363:
.LBE1362:
	.loc 1 2616 50
	movl	-10924(%rbp), %eax
	cltq
	addq	%rax, -10920(%rbp)
	.loc 1 2617 41
	movdqa	-2672(%rbp), %xmm0
	pshufd	$78, %xmm0, %xmm0
	movq	-10920(%rbp), %rax
	movq	%rax, -2680(%rbp)
	movaps	%xmm0, -10912(%rbp)
.LBB1364:
.LBB1365:
	.loc 2 733 42
	movq	-10912(%rbp), %rax
	.loc 2 733 21
	movq	%rax, %rdx
	.loc 2 733 19
	movq	-2680(%rbp), %rax
	movq	%rdx, (%rax)
	.loc 2 734 1
	nop
.LBE1365:
.LBE1364:
.LBE1317:
	.loc 1 2629 1
	nop
	leave
	.cfi_def_cfa 7, 8
	ret
	.cfi_endproc
.LFE585:
	.size	stbi__idct_simd, .-stbi__idct_simd
	.type	stbi__get_marker, @function
stbi__get_marker:
.LFB586:
	.loc 1 2846 1
	.cfi_startproc
	pushq	%rbp
	.cfi_def_cfa_offset 16
	.cfi_offset 6, -16
	movq	%rsp, %rbp
	.cfi_def_cfa_register 6
	subq	$32, %rsp
	movq	%rdi, -24(%rbp)
	.loc 1 2848 9
	movq	-24(%rbp), %rax
	movzbl	18472(%rax), %eax
	.loc 1 2848 7
	cmpb	$-1, %al
	je	.L742
	.loc 1 2848 44 discriminator 1
	movq	-24(%rbp), %rax
	movzbl	18472(%rax), %eax
	movb	%al, -1(%rbp)
	.loc 1 2848 67 discriminator 1
	movq	-24(%rbp), %rax
	movb	$-1, 18472(%rax)
	.loc 1 2848 95 discriminator 1
	movzbl	-1(%rbp), %eax
	jmp	.L743
.L742:
	.loc 1 2849 8
	movq	-24(%rbp), %rax
	movq	(%rax), %rax
	movq	%rax, %rdi
	call	stbi__get8
	movb	%al, -1(%rbp)
	.loc 1 2850 7
	cmpb	$-1, -1(%rbp)
	je	.L745
	.loc 1 2850 26 discriminator 1
	movl	$-1, %eax
	jmp	.L743
.L746:
	.loc 1 2852 11
	movq	-24(%rbp), %rax
	movq	(%rax), %rax
	movq	%rax, %rdi
	call	stbi__get8
	movb	%al, -1(%rbp)
.L745:
	.loc 1 2851 10
	cmpb	$-1, -1(%rbp)
	je	.L746
	.loc 1 2853 11
	movzbl	-1(%rbp), %eax
.L743:
	.loc 1 2854 1
	leave
	.cfi_def_cfa 7, 8
	ret
	.cfi_endproc
.LFE586:
	.size	stbi__get_marker, .-stbi__get_marker
	.type	stbi__jpeg_reset, @function
stbi__jpeg_reset:
.LFB587:
	.loc 1 2863 1
	.cfi_startproc
	pushq	%rbp
	.cfi_def_cfa_offset 16
	.cfi_offset 6, -16
	movq	%rsp, %rbp
	.cfi_def_cfa_register 6
	movq	%rdi, -8(%rbp)
	.loc 1 2864 17
	movq	-8(%rbp), %rax
	movl	$0, 18468(%rax)
	.loc 1 2865 19
	movq	-8(%rbp), %rax
	movl	$0, 18464(%rax)
	.loc 1 2866 14
	movq	-8(%rbp), %rax
	movl	$0, 18476(%rax)
	.loc 1 2867 102
	movq	-8(%rbp), %rax
	movl	$0, 18392(%rax)
	.loc 1 2867 93
	movq	-8(%rbp), %rax
	movl	18392(%rax), %edx
	.loc 1 2867 77
	movq	-8(%rbp), %rax
	movl	%edx, 18296(%rax)
	.loc 1 2867 68
	movq	-8(%rbp), %rax
	movl	18296(%rax), %edx
	.loc 1 2867 52
	movq	-8(%rbp), %rax
	movl	%edx, 18200(%rax)
	.loc 1 2867 43
	movq	-8(%rbp), %rax
	movl	18200(%rax), %edx
	.loc 1 2867 27
	movq	-8(%rbp), %rax
	movl	%edx, 18104(%rax)
	.loc 1 2868 14
	movq	-8(%rbp), %rax
	movb	$-1, 18472(%rax)
	.loc 1 2869 15
	movq	-8(%rbp), %rax
	movl	18536(%rax), %eax
	.loc 1 2869 56
	testl	%eax, %eax
	je	.L748
	.loc 1 2869 56 is_stmt 0 discriminator 1
	movq	-8(%rbp), %rax
	movl	18536(%rax), %eax
	jmp	.L749
.L748:
	.loc 1 2869 56 discriminator 2
	movl	$2147483647, %eax
.L749:
	.loc 1 2869 12 is_stmt 1 discriminator 4
	movq	-8(%rbp), %rdx
	movl	%eax, 18540(%rdx)
	.loc 1 2870 15 discriminator 4
	movq	-8(%rbp), %rax
	movl	$0, 18500(%rax)
	.loc 1 2873 1 discriminator 4
	nop
	popq	%rbp
	.cfi_def_cfa 7, 8
	ret
	.cfi_endproc
.LFE587:
	.size	stbi__jpeg_reset, .-stbi__jpeg_reset
	.type	stbi__parse_entropy_coded_data, @function
stbi__parse_entropy_coded_data:
.LFB588:
	.loc 1 2876 1
	.cfi_startproc
	pushq	%rbp
	.cfi_def_cfa_offset 16
	.cfi_offset 6, -16
	movq	%rsp, %rbp
	.cfi_def_cfa_register 6
	subq	$288, %rsp
	movq	%rdi, -280(%rbp)
	.loc 1 2877 4
	movq	-280(%rbp), %rax
	movq	%rax, %rdi
	call	stbi__jpeg_reset
	.loc 1 2878 10
	movq	-280(%rbp), %rax
	movl	18480(%rax), %eax
	.loc 1 2878 7
	testl	%eax, %eax
	jne	.L751
	.loc 1 2879 12
	movq	-280(%rbp), %rax
	movl	18516(%rax), %eax
	.loc 1 2879 10
	cmpl	$1, %eax
	jne	.L752
.LBB1366:
	.loc 1 2882 14
	movq	-280(%rbp), %rax
	movl	18520(%rax), %eax
	movl	%eax, -128(%rbp)
	.loc 1 2887 33
	movq	-280(%rbp), %rcx
	movl	-128(%rbp), %eax
	movslq	%eax, %rdx
	movq	%rdx, %rax
	addq	%rax, %rax
	addq	%rdx, %rax
	salq	$5, %rax
	addq	%rcx, %rax
	addq	$18108, %rax
	movl	(%rax), %eax
	.loc 1 2887 35
	addl	$7, %eax
	.loc 1 2887 14
	sarl	$3, %eax
	movl	%eax, -132(%rbp)
	.loc 1 2888 33
	movq	-280(%rbp), %rcx
	movl	-128(%rbp), %eax
	movslq	%eax, %rdx
	movq	%rdx, %rax
	addq	%rax, %rax
	addq	%rdx, %rax
	salq	$5, %rax
	addq	%rcx, %rax
	addq	$18112, %rax
	movl	(%rax), %eax
	.loc 1 2888 35
	addl	$7, %eax
	.loc 1 2888 14
	sarl	$3, %eax
	movl	%eax, -136(%rbp)
	.loc 1 2889 16
	movl	$0, -8(%rbp)
	.loc 1 2889 10
	jmp	.L753
.L762:
	.loc 1 2890 19
	movl	$0, -4(%rbp)
	.loc 1 2890 13
	jmp	.L754
.L761:
.LBB1367:
	.loc 1 2891 20
	movq	-280(%rbp), %rcx
	movl	-128(%rbp), %eax
	movslq	%eax, %rdx
	movq	%rdx, %rax
	addq	%rax, %rax
	addq	%rdx, %rax
	salq	$5, %rax
	addq	%rcx, %rax
	addq	$18100, %rax
	movl	(%rax), %eax
	movl	%eax, -140(%rbp)
	.loc 1 2892 143
	movq	-280(%rbp), %rcx
	movl	-128(%rbp), %eax
	movslq	%eax, %rdx
	movq	%rdx, %rax
	addq	%rax, %rax
	addq	%rdx, %rax
	salq	$5, %rax
	addq	%rcx, %rax
	addq	$18092, %rax
	movl	(%rax), %eax
	.loc 1 2892 128
	cltq
	addq	$105, %rax
	salq	$7, %rax
	movq	%rax, %rdx
	movq	-280(%rbp), %rax
	addq	%rdx, %rax
	leaq	8(%rax), %rdi
	.loc 1 2892 109
	movl	-140(%rbp), %eax
	cltq
	salq	$10, %rax
	leaq	13952(%rax), %rdx
	movq	-280(%rbp), %rax
	addq	%rdx, %rax
	leaq	8(%rax), %r10
	.loc 1 2892 84
	movq	-280(%rbp), %rax
	leaq	6728(%rax), %rdx
	.loc 1 2892 94
	movl	-140(%rbp), %eax
	cltq
	imulq	$1680, %rax, %rax
	.loc 1 2892 21
	leaq	(%rdx,%rax), %rcx
	.loc 1 2892 54
	movq	-280(%rbp), %rax
	leaq	8(%rax), %r8
	.loc 1 2892 79
	movq	-280(%rbp), %rsi
	movl	-128(%rbp), %eax
	movslq	%eax, %rdx
	movq	%rdx, %rax
	addq	%rax, %rax
	addq	%rdx, %rax
	salq	$5, %rax
	addq	%rsi, %rax
	addq	$18096, %rax
	movl	(%rax), %eax
	cltq
	.loc 1 2892 64
	imulq	$1680, %rax, %rax
	.loc 1 2892 21
	leaq	(%r8,%rax), %rdx
	movl	-128(%rbp), %r8d
	leaq	-272(%rbp), %rsi
	movq	-280(%rbp), %rax
	subq	$8, %rsp
	pushq	%rdi
	movl	%r8d, %r9d
	movq	%r10, %r8
	movq	%rax, %rdi
	call	stbi__jpeg_decode_block
	addq	$16, %rsp
	.loc 1 2892 19
	testl	%eax, %eax
	jne	.L755
	.loc 1 2892 157 discriminator 1
	movl	$0, %eax
	jmp	.L763
.L755:
	.loc 1 2893 17
	movq	-280(%rbp), %rax
	movq	18544(%rax), %r8
	.loc 1 2893 16
	movq	-280(%rbp), %rcx
	movl	-128(%rbp), %eax
	movslq	%eax, %rdx
	movq	%rdx, %rax
	addq	%rax, %rax
	addq	%rdx, %rax
	salq	$5, %rax
	addq	%rcx, %rax
	addq	$18116, %rax
	movl	(%rax), %ecx
	.loc 1 2893 51
	movq	-280(%rbp), %rsi
	movl	-128(%rbp), %eax
	movslq	%eax, %rdx
	movq	%rdx, %rax
	addq	%rax, %rax
	addq	%rdx, %rax
	salq	$5, %rax
	addq	%rsi, %rax
	addq	$18128, %rax
	movq	(%rax), %rsi
	.loc 1 2893 71
	movq	-280(%rbp), %rdi
	movl	-128(%rbp), %eax
	movslq	%eax, %rdx
	movq	%rdx, %rax
	addq	%rax, %rax
	addq	%rdx, %rax
	salq	$5, %rax
	addq	%rdi, %rax
	addq	$18116, %rax
	movl	(%rax), %eax
	.loc 1 2893 74
	imull	-8(%rbp), %eax
	.loc 1 2893 76
	sall	$3, %eax
	movslq	%eax, %rdx
	.loc 1 2893 80
	movl	-4(%rbp), %eax
	sall	$3, %eax
	cltq
	.loc 1 2893 78
	addq	%rdx, %rax
	.loc 1 2893 16
	leaq	(%rsi,%rax), %rdi
	leaq	-272(%rbp), %rax
	movq	%rax, %rdx
	movl	%ecx, %esi
	call	*%r8
.LVL4:
	.loc 1 2895 23
	movq	-280(%rbp), %rax
	movl	18540(%rax), %eax
	.loc 1 2895 20
	leal	-1(%rax), %edx
	.loc 1 2895 19
	movq	-280(%rbp), %rax
	movl	%edx, 18540(%rax)
	.loc 1 2895 23
	movq	-280(%rbp), %rax
	movl	18540(%rax), %eax
	.loc 1 2895 19
	testl	%eax, %eax
	jg	.L757
	.loc 1 2896 24
	movq	-280(%rbp), %rax
	movl	18468(%rax), %eax
	.loc 1 2896 22
	cmpl	$23, %eax
	jg	.L758
	.loc 1 2896 42 discriminator 1
	movq	-280(%rbp), %rax
	movq	%rax, %rdi
	call	stbi__grow_buffer_unsafe
.L758:
	.loc 1 2899 24
	movq	-280(%rbp), %rax
	movzbl	18472(%rax), %eax
	.loc 1 2899 22
	cmpb	$-49, %al
	jbe	.L759
	.loc 1 2899 24 discriminator 2
	movq	-280(%rbp), %rax
	movzbl	18472(%rax), %eax
	.loc 1 2899 23 discriminator 2
	cmpb	$-41, %al
	jbe	.L760
.L759:
	.loc 1 2899 57 discriminator 3
	movl	$1, %eax
	jmp	.L763
.L760:
	.loc 1 2900 19
	movq	-280(%rbp), %rax
	movq	%rax, %rdi
	call	stbi__jpeg_reset
.L757:
.LBE1367:
	.loc 1 2890 30 discriminator 2
	addl	$1, -4(%rbp)
.L754:
	.loc 1 2890 13 discriminator 1
	movl	-4(%rbp), %eax
	cmpl	-132(%rbp), %eax
	jl	.L761
	.loc 1 2889 27 discriminator 2
	addl	$1, -8(%rbp)
.L753:
	.loc 1 2889 10 discriminator 1
	movl	-8(%rbp), %eax
	cmpl	-136(%rbp), %eax
	jl	.L762
	.loc 1 2904 17
	movl	$1, %eax
	jmp	.L763
.L752:
.LBE1366:
.LBB1368:
	.loc 1 2908 16
	movl	$0, -16(%rbp)
	.loc 1 2908 10
	jmp	.L764
.L779:
	.loc 1 2909 19
	movl	$0, -12(%rbp)
	.loc 1 2909 13
	jmp	.L765
.L778:
	.loc 1 2911 22
	movl	$0, -20(%rbp)
	.loc 1 2911 16
	jmp	.L766
.L773:
.LBB1369:
	.loc 1 2912 23
	movq	-280(%rbp), %rax
	movl	-20(%rbp), %edx
	movslq	%edx, %rdx
	addq	$4628, %rdx
	movl	8(%rax,%rdx,4), %eax
	movl	%eax, -112(%rbp)
	.loc 1 2915 25
	movl	$0, -28(%rbp)
	.loc 1 2915 19
	jmp	.L767
.L772:
	.loc 1 2916 28
	movl	$0, -24(%rbp)
	.loc 1 2916 22
	jmp	.L768
.L771:
.LBB1370:
